 iconv

 Timestamp is 5e466005 (Fri Feb 14 17:53:25 2020)

 Preferred load address is 0000000180000000

 Start         Length     Name                   Class
 0001:00000000 00000020H .text$di                CODE
 0001:00000020 0002ac00H .text$mn                CODE
 0001:0002ac20 00000020H .text$mn$00             CODE
 0001:0002ac40 00000250H .text$x                 CODE
 0001:0002ae90 00000003H .text$yd                CODE
 0002:00000000 00000258H .idata$5                DATA
 0002:00000258 00000010H .00cfg                  DATA
 0002:00000268 00000008H .CRT$XCA                DATA
 0002:00000270 00000010H .CRT$XCU                DATA
 0002:00000280 00000008H .CRT$XCZ                DATA
 0002:00000288 00000008H .CRT$XIA                DATA
 0002:00000290 00000018H .CRT$XIC                DATA
 0002:000002a8 00000008H .CRT$XIZ                DATA
 0002:000002b0 00000008H .CRT$XPA                DATA
 0002:000002b8 00000010H .CRT$XPX                DATA
 0002:000002c8 00000008H .CRT$XPXA               DATA
 0002:000002d0 00000008H .CRT$XPZ                DATA
 0002:000002d8 00000008H .CRT$XTA                DATA
 0002:000002e0 00000010H .CRT$XTZ                DATA
 0002:000002e8 00000000H .gfids$y                DATA
 0002:000002f0 000e5420H .rdata                  DATA
 0002:000e5710 000001f4H .rdata$r                DATA
 0002:000e5904 000003f4H .rdata$zzzdbg           DATA
 0002:000e5cf8 00000008H .rtc$IAA                DATA
 0002:000e5d00 00000008H .rtc$IZZ                DATA
 0002:000e5d08 00000008H .rtc$TAA                DATA
 0002:000e5d10 00000008H .rtc$TZZ                DATA
 0002:000e5d18 00001548H .xdata                  DATA
 0002:000e7260 000000ecH .xdata$x                DATA
 0002:000e734c 00000020H .didat$2                DATA
 0002:000e736c 00000024H .didat$3                DATA
 0002:000e7390 00000130H .didat$4                DATA
 0002:000e74c0 00000a80H .didat$6                DATA
 0002:000e7f40 00000130H .didat$7                DATA
 0002:000e8070 00000054H .edata                  DATA
 0002:000e80c4 00000014H .idata$2                DATA
 0002:000e80d8 00000018H .idata$3                DATA
 0002:000e80f0 00000258H .idata$4                DATA
 0002:000e8348 00000574H .idata$6                DATA
 0003:00000000 00000a90H .data                   DATA
 0003:00000a90 000000a0H .data$r                 DATA
 0003:00000b30 00000130H .didat$5                DATA
 0003:00000c60 00001224H .bss                    DATA
 0004:00000000 00001a70H .pdata                  DATA
 0005:00000000 00000094H _RDATA                  DATA
 0006:00000000 00000060H .rsrc$01                DATA
 0006:00000060 00000180H .rsrc$02                DATA

  Address         Publics by Value              Rva+Base               Lib:Object

 0000:00000000       __hybrid_code_map_count    0000000000000000     <absolute>
 0000:00000000       __hybrid_code_map          0000000000000000     <absolute>
 0000:00000000       __guard_iat_count          0000000000000000     <absolute>
 0000:00000000       __guard_longjmp_count      0000000000000000     <absolute>
 0000:00000000       __volatile_metadata        0000000000000000     <absolute>
 0000:00000000       __guard_longjmp_table      0000000000000000     <absolute>
 0000:00000000       __guard_iat_table          0000000000000000     <absolute>
 0000:00000000       __guard_fids_count         0000000000000000     <absolute>
 0000:00000000       ___safe_se_handler_count   0000000000000000     <absolute>
 0000:00000000       __enclave_config           0000000000000000     <absolute>
 0000:00000000       __AbsoluteZero             0000000000000000     <absolute>
 0000:00000000       ___safe_se_handler_table   0000000000000000     <absolute>
 0000:00000000       __guard_fids_table         0000000000000000     <absolute>
 0000:00000000       __hybrid_auxiliary_iat     0000000000000000     <absolute>
 0000:00000000       __dynamic_value_reloc_table 0000000000000000     <absolute>
 0000:00000100       __guard_flags              0000000000000100     <absolute>
 0000:00000000       __ImageBase                0000000180000000     <linker-defined>
 0001:00000100       ??0Utf8String@Nan@@QEAA@V?$Local@VValue@v8@@@v8@@@Z 0000000180001100 f i binding.obj
 0001:00000d40       ??$SetMethod@VObject@v8@@VLocal@2@@Nan@@YAXV?$Local@VObject@v8@@@v8@@PEBDP6AXAEBV?$FunctionCallbackInfo@VValue@v8@@@0@@Z@Z 0000000180001d40 f i binding.obj
 0001:00000f80       ??$SetMethodAux@V?$Local@VObject@v8@@@v8@@@imp@Nan@@YAXV?$Local@VObject@v8@@@v8@@V?$Local@VString@v8@@@3@V?$Local@VFunctionTemplate@v8@@@3@ZZ 0000000180001f80 f i binding.obj
 0001:00017660       aliases_lookup             0000000180018660 f   iconv.obj
 0001:000177f0       libiconv_open              00000001800187f0 f   iconv.obj
 0001:00017bd4       __imp_load_?Value@External@v8@@QEBAPEAXXZ 0000000180018bd4 f   node:node.exe
 0001:00017be0       __tailMerge_node_exe       0000000180018be0     node:node.exe
 0001:00017c59       __imp_load_?New@External@v8@@SA?AV?$Local@VExternal@v8@@@2@PEAVIsolate@2@PEAX@Z 0000000180018c59 f   node:node.exe
 0001:00017c65       __imp_load_?NewFromUnsigned@Integer@v8@@SA?AV?$Local@VInteger@v8@@@2@PEAVIsolate@2@I@Z 0000000180018c65 f   node:node.exe
 0001:00017c71       __imp_load_?New@Integer@v8@@SA?AV?$Local@VInteger@v8@@@2@PEAVIsolate@2@H@Z 0000000180018c71 f   node:node.exe
 0001:00017c7d       __imp_load_?GetCurrentContext@Isolate@v8@@QEAA?AV?$Local@VContext@v8@@@2@XZ 0000000180018c7d f   node:node.exe
 0001:00017c89       __imp_load_?GetCurrent@Isolate@v8@@SAPEAV12@XZ 0000000180018c89 f   node:node.exe
 0001:00017c95       __imp_load_?CreateHandle@HandleScope@v8@@KAPEAPEAVObject@internal@2@PEAVIsolate@42@PEAV342@@Z 0000000180018c95 f   node:node.exe
 0001:00017ca1       __imp_load_?CreateHandle@HandleScope@v8@@CAPEAPEAVObject@internal@2@PEAVHeapObject@42@PEAV342@@Z 0000000180018ca1 f   node:node.exe
 0001:00017cad       __imp_load_??1HandleScope@v8@@QEAA@XZ 0000000180018cad f   node:node.exe
 0001:00017cb9       __imp_load_??0HandleScope@v8@@QEAA@PEAVIsolate@1@@Z 0000000180018cb9 f   node:node.exe
 0001:00017cc5       __imp_load_?SetClassName@FunctionTemplate@v8@@QEAAXV?$Local@VString@v8@@@2@@Z 0000000180018cc5 f   node:node.exe
 0001:00017cd1       __imp_load_?GetFunction@FunctionTemplate@v8@@QEAA?AV?$MaybeLocal@VFunction@v8@@@2@V?$Local@VContext@v8@@@2@@Z 0000000180018cd1 f   node:node.exe
 0001:00017cdd       __imp_load_?New@FunctionTemplate@v8@@SA?AV?$Local@VFunctionTemplate@v8@@@2@PEAVIsolate@2@P6AXAEBV?$FunctionCallbackInfo@VValue@v8@@@2@@ZV?$Local@VValue@v8@@@2@V?$Local@VSignature@v8@@@2@HW4ConstructorBehavior@2@W4SideEffectType@2@@Z 0000000180018cdd f   node:node.exe
 0001:00017ce9       __imp_load_?ToLocalEmpty@V8@v8@@CAXXZ 0000000180018ce9 f   node:node.exe
 0001:00017cf5       __imp_load_?MakeWeak@V8@v8@@CAXPEAPEAVObject@internal@2@PEAXP6AXAEBV?$WeakCallbackInfo@X@2@@ZW4WeakCallbackType@2@@Z 0000000180018cf5 f   node:node.exe
 0001:00017d01       __imp_load_?DisposeGlobal@V8@v8@@CAXPEAPEAVObject@internal@2@@Z 0000000180018d01 f   node:node.exe
 0001:00017d0d       __imp_load_?GlobalizeReference@V8@v8@@CAPEAPEAVObject@internal@2@PEAVIsolate@42@PEAPEAV342@@Z 0000000180018d0d f   node:node.exe
 0001:00017d19       __imp_load_?Uint32Value@Value@v8@@QEBA?AV?$Maybe@I@2@V?$Local@VContext@v8@@@2@@Z 0000000180018d19 f   node:node.exe
 0001:00017d25       __imp_load_?BooleanValue@Value@v8@@QEBA?AV?$Maybe@_N@2@V?$Local@VContext@v8@@@2@@Z 0000000180018d25 f   node:node.exe
 0001:00017d31       __imp_load_?ToInteger@Value@v8@@QEBA?AV?$MaybeLocal@VInteger@v8@@@2@V?$Local@VContext@v8@@@2@@Z 0000000180018d31 f   node:node.exe
 0001:00017d3d       __imp_load_?ToString@Value@v8@@QEBA?AV?$MaybeLocal@VString@v8@@@2@V?$Local@VContext@v8@@@2@@Z 0000000180018d3d f   node:node.exe
 0001:00017d49       __imp_load_?Escape@EscapableHandleScope@v8@@AEAAPEAPEAVObject@internal@2@PEAPEAV342@@Z 0000000180018d49 f   node:node.exe
 0001:00017d55       __imp_load_??0EscapableHandleScope@v8@@QEAA@PEAVIsolate@1@@Z 0000000180018d55 f   node:node.exe
 0001:00017d61       __imp_load_?NewFromUtf8@String@v8@@SA?AV?$MaybeLocal@VString@v8@@@2@PEAVIsolate@2@PEBDW4NewStringType@2@H@Z 0000000180018d61 f   node:node.exe
 0001:00017d6d       __imp_load_?WriteUtf8@String@v8@@QEBAHPEADHPEAHH@Z 0000000180018d6d f   node:node.exe
 0001:00017d79       __imp_load_?Length@String@v8@@QEBAHXZ 0000000180018d79 f   node:node.exe
 0001:00017d85       __imp_load_?SlowGetAlignedPointerFromInternalField@Object@v8@@AEAAPEAXH@Z 0000000180018d85 f   node:node.exe
 0001:00017d91       __imp_load_?SlowGetInternalField@Object@v8@@AEAA?AV?$Local@VValue@v8@@@2@H@Z 0000000180018d91 f   node:node.exe
 0001:00017d9d       __imp_load_?SetAlignedPointerInInternalField@Object@v8@@QEAAXHPEAX@Z 0000000180018d9d f   node:node.exe
 0001:00017da9       __imp_load_?SetInternalField@Object@v8@@QEAAXHV?$Local@VValue@v8@@@2@@Z 0000000180018da9 f   node:node.exe
 0001:00017db5       __imp_load_?Set@Object@v8@@QEAA?AV?$Maybe@_N@2@V?$Local@VContext@v8@@@2@V?$Local@VValue@v8@@@2@1@Z 0000000180018db5 f   node:node.exe
 0001:00017dc1       __imp_load_?Set@Object@v8@@QEAA?AV?$Maybe@_N@2@V?$Local@VContext@v8@@@2@IV?$Local@VValue@v8@@@2@@Z 0000000180018dc1 f   node:node.exe
 0001:00017dcd       __imp_load_?SetInternalFieldCount@ObjectTemplate@v8@@QEAAXH@Z 0000000180018dcd f   node:node.exe
 0001:00017dd9       __imp_load_?NewInstance@ObjectTemplate@v8@@QEAA?AV?$MaybeLocal@VObject@v8@@@2@V?$Local@VContext@v8@@@2@@Z 0000000180018dd9 f   node:node.exe
 0001:00017de5       __imp_load_?New@ObjectTemplate@v8@@SA?AV?$Local@VObjectTemplate@v8@@@2@PEAVIsolate@2@V?$Local@VFunctionTemplate@v8@@@2@@Z 0000000180018de5 f   node:node.exe
 0001:00017df1       __imp_load_node_module_register 0000000180018df1 f   node:node.exe
 0001:00017dfd       __imp_load_?Data@Buffer@node@@YAPEADV?$Local@VObject@v8@@@v8@@@Z 0000000180018dfd f   node:node.exe
 0001:00017e20       __security_check_cookie    0000000180018e20 f   LIBCMT:amdsecgs.obj
 0001:00017e44       ??2@YAPEAX_K@Z             0000000180018e44 f   LIBCMT:new_scalar.obj
 0001:00017e80       __scrt_acquire_startup_lock 0000000180018e80 f   LIBCMT:utility.obj
 0001:00017ebc       __scrt_dllmain_after_initialize_c 0000000180018ebc f   LIBCMT:utility.obj
 0001:00017ef0       __scrt_dllmain_before_initialize_c 0000000180018ef0 f   LIBCMT:utility.obj
 0001:00017f08       __scrt_dllmain_crt_thread_attach 0000000180018f08 f   LIBCMT:utility.obj
 0001:00017f30       __scrt_dllmain_crt_thread_detach 0000000180018f30 f   LIBCMT:utility.obj
 0001:00017f48       __scrt_dllmain_exception_filter 0000000180018f48 f   LIBCMT:utility.obj
 0001:00017fa8       __scrt_dllmain_uninitialize_c 0000000180018fa8 f   LIBCMT:utility.obj
 0001:00017fd8       __scrt_dllmain_uninitialize_critical 0000000180018fd8 f   LIBCMT:utility.obj
 0001:00017fec       __scrt_initialize_crt      0000000180018fec f   LIBCMT:utility.obj
 0001:00018038       __scrt_initialize_onexit_tables 0000000180019038 f   LIBCMT:utility.obj
 0001:000180e8       __scrt_is_nonwritable_in_current_image 00000001800190e8 f   LIBCMT:utility.obj
 0001:00018180       __scrt_release_startup_lock 0000000180019180 f   LIBCMT:utility.obj
 0001:000181a4       __scrt_uninitialize_crt    00000001800191a4 f   LIBCMT:utility.obj
 0001:000181d0       _onexit                    00000001800191d0 f   LIBCMT:utility.obj
 0001:00018220       atexit                     0000000180019220 f   LIBCMT:utility.obj
 0001:00018238       ??3@YAXPEAX_K@Z            0000000180019238 f   LIBCMT:delete_scalar_size.obj
 0001:00018560       _DllMainCRTStartup         0000000180019560 f   LIBCMT:dll_dllmain.obj
 0001:000185a0       __raise_securityfailure    00000001800195a0 f   LIBCMT:gs_report.obj
 0001:000185d4       __report_gsfailure         00000001800195d4 f   LIBCMT:gs_report.obj
 0001:000186a8       __report_rangecheckfailure 00000001800196a8 f   LIBCMT:gs_report.obj
 0001:000186bc       __report_securityfailure   00000001800196bc f   LIBCMT:gs_report.obj
 0001:0001883c       ??0bad_alloc@std@@QEAA@AEBV01@@Z 000000018001983c f i LIBCMT:throw_bad_alloc.obj
 0001:00018878       ??0bad_alloc@std@@QEAA@XZ  0000000180019878 f i LIBCMT:throw_bad_alloc.obj
 0001:00018898       ??0bad_array_new_length@std@@QEAA@AEBV01@@Z 0000000180019898 f i LIBCMT:throw_bad_alloc.obj
 0001:000188d4       ??0bad_array_new_length@std@@QEAA@XZ 00000001800198d4 f i LIBCMT:throw_bad_alloc.obj
 0001:000188f4       ??0exception@std@@QEAA@AEBV01@@Z 00000001800198f4 f i LIBCMT:throw_bad_alloc.obj
 0001:00018928       ??1bad_alloc@std@@UEAA@XZ  0000000180019928 f i LIBCMT:throw_bad_alloc.obj
 0001:00018928       ??1bad_array_new_length@std@@UEAA@XZ 0000000180019928 f i LIBCMT:throw_bad_alloc.obj
 0001:0001893c       ??_Ebad_alloc@std@@UEAAPEAXI@Z 000000018001993c f i LIBCMT:throw_bad_alloc.obj
 0001:0001893c       ??_Gbad_array_new_length@std@@UEAAPEAXI@Z 000000018001993c f i LIBCMT:throw_bad_alloc.obj
 0001:0001893c       ??_Ebad_array_new_length@std@@UEAAPEAXI@Z 000000018001993c f i LIBCMT:throw_bad_alloc.obj
 0001:0001893c       ??_Gbad_alloc@std@@UEAAPEAXI@Z 000000018001993c f i LIBCMT:throw_bad_alloc.obj
 0001:0001893c       ??_Eexception@std@@UEAAPEAXI@Z 000000018001993c f i LIBCMT:throw_bad_alloc.obj
 0001:0001893c       ??_Gexception@std@@UEAAPEAXI@Z 000000018001993c f i LIBCMT:throw_bad_alloc.obj
 0001:00018980       ?__scrt_throw_std_bad_alloc@@YAXXZ 0000000180019980 f   LIBCMT:throw_bad_alloc.obj
 0001:000189a0       ?__scrt_throw_std_bad_array_new_length@@YAXXZ 00000001800199a0 f   LIBCMT:throw_bad_alloc.obj
 0001:000189c0       ?what@exception@std@@UEBAPEBDXZ 00000001800199c0 f i LIBCMT:throw_bad_alloc.obj
 0001:000189d4       __isa_available_init       00000001800199d4 f   LIBCMT:cpu_disp.obj
 0001:00018b50       DllMain                    0000000180019b50 f   LIBCMT:dll_dllmain_stub.obj
 0001:00018b50       _get_startup_argv_mode     0000000180019b50 f   LIBCMT:argv_mode.obj
 0001:00018b58       __scrt_is_ucrt_dll_in_use  0000000180019b58 f   LIBCMT:ucrt_detection.obj
 0001:00018b64       __crt_debugger_hook        0000000180019b64 f   LIBCMT:utility_desktop.obj
 0001:00018b6c       __scrt_fastfail            0000000180019b6c f   LIBCMT:utility_desktop.obj
 0001:00018cb8       _guard_check_icall_nop     0000000180019cb8 f i LIBCMT:guard_support.obj
 0001:00018cbc       ??3@YAXPEAX@Z              0000000180019cbc f   LIBCMT:delete_scalar.obj
 0001:00018cc4       __security_init_cookie     0000000180019cc4 f   LIBCMT:gs_support.obj
 0001:00018d70       ?__scrt_initialize_type_info@@YAXXZ 0000000180019d70 f   LIBCMT:tncleanup.obj
 0001:00018d80       ?__scrt_uninitialize_type_info@@YAXXZ 0000000180019d80 f   LIBCMT:tncleanup.obj
 0001:00018d8c       __local_stdio_printf_options 0000000180019d8c f i LIBCMT:default_local_stdio_options.obj
 0001:00018d94       __local_stdio_scanf_options 0000000180019d94 f i LIBCMT:default_local_stdio_options.obj
 0001:00018d9c       __scrt_initialize_default_local_stdio_options 0000000180019d9c f   LIBCMT:default_local_stdio_options.obj
 0001:00018db8       __scrt_get_dyn_tls_init_callback 0000000180019db8 f   LIBCMT:dyn_tls_init.obj
 0001:00018dc0       _RTC_Initialize            0000000180019dc0 f   LIBCMT:initsect.obj
 0001:00018dfc       _RTC_Terminate             0000000180019dfc f   LIBCMT:initsect.obj
 0001:00018e38       ??_Etype_info@@UEAAPEAXI@Z 0000000180019e38 f i LIBCMT:std_type_info_static.obj
 0001:00018e38       ??_Gtype_info@@UEAAPEAXI@Z 0000000180019e38 f i LIBCMT:std_type_info_static.obj
 0001:00018e70       __vcrt_initialize          0000000180019e70 f   libvcruntime:initialization.obj
 0001:00018ea4       __vcrt_thread_attach       0000000180019ea4 f   libvcruntime:initialization.obj
 0001:00018eb8       __vcrt_thread_detach       0000000180019eb8 f   libvcruntime:initialization.obj
 0001:00018ecc       __vcrt_uninitialize        0000000180019ecc f   libvcruntime:initialization.obj
 0001:00018eec       __vcrt_uninitialize_critical 0000000180019eec f   libvcruntime:initialization.obj
 0001:00018efc       __C_specific_handler       0000000180019efc f   libvcruntime:riscchandler.obj
 0001:00019108       __std_exception_copy       000000018001a108 f   libvcruntime:std_exception.obj
 0001:00019198       __std_exception_destroy    000000018001a198 f   libvcruntime:std_exception.obj
 0001:000191c0       _CxxThrowException         000000018001a1c0 f   libvcruntime:throw.obj
 0001:00019290       memset_repmovs             000000018001a290 f   libvcruntime:memset.obj
 0001:000192b0       memset                     000000018001a2b0 f   libvcruntime:memset.obj
 0001:00019440       __std_type_info_destroy_list 000000018001a440 f   libvcruntime:std_type_info.obj
 0001:0001946c       __vcrt_freefls             000000018001a46c f   libvcruntime:per_thread_data.obj
 0001:0001948c       __vcrt_freeptd             000000018001a48c f   libvcruntime:per_thread_data.obj
 0001:000194dc       __vcrt_getptd_noexit       000000018001a4dc f   libvcruntime:per_thread_data.obj
 0001:0001959c       __vcrt_initialize_ptd      000000018001a59c f   libvcruntime:per_thread_data.obj
 0001:000195e4       __vcrt_uninitialize_ptd    000000018001a5e4 f   libvcruntime:per_thread_data.obj
 0001:00019608       __vcrt_initialize_locks    000000018001a608 f   libvcruntime:locks.obj
 0001:00019650       __vcrt_uninitialize_locks  000000018001a650 f   libvcruntime:locks.obj
 0001:00019860       __vcrt_FlsAlloc            000000018001a860 f   libvcruntime:winapi_downlevel.obj
 0001:000198a8       __vcrt_FlsFree             000000018001a8a8 f   libvcruntime:winapi_downlevel.obj
 0001:000198f0       __vcrt_FlsGetValue         000000018001a8f0 f   libvcruntime:winapi_downlevel.obj
 0001:00019938       __vcrt_FlsSetValue         000000018001a938 f   libvcruntime:winapi_downlevel.obj
 0001:0001998c       __vcrt_InitializeCriticalSectionEx 000000018001a98c f   libvcruntime:winapi_downlevel.obj
 0001:000199f0       __vcrt_initialize_winapi_thunks 000000018001a9f0 f   libvcruntime:winapi_downlevel.obj
 0001:00019a20       __vcrt_uninitialize_winapi_thunks 000000018001aa20 f   libvcruntime:winapi_downlevel.obj
 0001:00019a60       __vcrt_initialize_pure_virtual_call_handler 000000018001aa60 f   libvcruntime:purevirt_data.obj
 0001:00019a80       _NLG_Notify                000000018001aa80 f   libvcruntime:notify.obj
 0001:00019aa0       __NLG_Dispatch2            000000018001aaa0 f   libvcruntime:notify.obj
 0001:00019ab0       __NLG_Return2              000000018001aab0 f   libvcruntime:notify.obj
 0001:00019ab4       __except_validate_context_record 000000018001aab4 f   libvcruntime:jbcxrval.obj
 0001:00019aec       __DestructExceptionObject  000000018001aaec f   libvcruntime:ehhelpers.obj
 0001:00019b60       ?_CallMemberFunction0@@YAXQEAX0@Z 000000018001ab60 f i libvcruntime:ehhelpers.obj
 0001:00019b80       memcpy_repmovs             000000018001ab80 f   libvcruntime:memcpy.obj
 0001:00019ba0       memcpy                     000000018001aba0 f   libvcruntime:memcpy.obj
 0001:00019ba0       memmove                    000000018001aba0 f   libvcruntime:memcpy.obj
 0001:00019f90       _CallSettingFrame          000000018001af90 f   libvcruntime:handlers.obj
 0001:00019fe0       _CallSettingFrameEncoded   000000018001afe0 f   libvcruntime:handlers.obj
 0001:0001a028       __acrt_errno_from_os_error 000000018001b028 f   libucrt:errno.obj
 0001:0001a070       __acrt_errno_map_os_error  000000018001b070 f   libucrt:errno.obj
 0001:0001a0c0       __doserrno                 000000018001b0c0 f   libucrt:errno.obj
 0001:0001a0e0       _errno                     000000018001b0e0 f   libucrt:errno.obj
 0001:0001a100       free                       000000018001b100 f   libucrt:free.obj
 0001:0001a82c       ??$ftprintf@PEAU_iobuf@@PEB_WAEBQEB_WAEBQEB_WAEBI@?$__crt_char_traits@_W@@SAH$$QEAPEAU_iobuf@@$$QEAPEB_WAEBQEB_W2AEBI@Z 000000018001b82c f i libucrt:assert.obj
 0001:0001a854       _wassert                   000000018001b854 f   libucrt:assert.obj
 0001:0001a8c8       fwprintf                   000000018001b8c8 f i libucrt:assert.obj
 0001:0001a90c       swprintf                   000000018001b90c f i libucrt:assert.obj
 0001:0001a960       malloc                     000000018001b960 f   libucrt:malloc.obj
 0001:0001a968       abort                      000000018001b968 f   libucrt:abort.obj
 0001:0001a9c0       qsort                      000000018001b9c0 f   libucrt:qsort.obj
 0001:0001ad80       ??0_LocaleUpdate@@QEAA@QEAU__crt_locale_pointers@@@Z 000000018001bd80 f i libucrt:stricmp.obj
 0001:0001ae1c       __ascii_stricmp            000000018001be1c f   libucrt:stricmp.obj
 0001:0001ae5c       _stricmp                   000000018001be5c f   libucrt:stricmp.obj
 0001:0001aea4       _stricmp_l                 000000018001bea4 f   libucrt:stricmp.obj
 0001:0001af58       __acrt_initialize_new_handler 000000018001bf58 f   libucrt:new_handler.obj
 0001:0001af60       _callnewh                  000000018001bf60 f   libucrt:new_handler.obj
 0001:0001af90       _query_new_handler         000000018001bf90 f   libucrt:new_handler.obj
 0001:0001afc4       _seh_filter_dll            000000018001bfc4 f   libucrt:exception_filter.obj
 0001:0001afd8       _seh_filter_exe            000000018001bfd8 f   libucrt:exception_filter.obj
 0001:0001b3c8       __acrt_initialize_thread_local_exit_callback 000000018001c3c8 f   libucrt:exit.obj
 0001:0001b3d0       _cexit                     000000018001c3d0 f   libucrt:exit.obj
 0001:0001b3e0       _exit                      000000018001c3e0 f   libucrt:exit.obj
 0001:0001b3ec       _is_c_termination_complete 000000018001c3ec f   libucrt:exit.obj
 0001:0001b5b8       __acrt_allocate_buffer_for_argv 000000018001c5b8 f   libucrt:argv_parsing.obj
 0001:0001b618       _configure_narrow_argv     000000018001c618 f   libucrt:argv_parsing.obj
 0001:0001b990       __dcrt_uninitialize_environments_nolock 000000018001c990 f   libucrt:environment_initialization.obj
 0001:0001b9c8       _initialize_narrow_environment 000000018001c9c8 f   libucrt:environment_initialization.obj
 0001:0001bd10       _crt_atexit                000000018001cd10 f   libucrt:onexit.obj
 0001:0001bd20       _execute_onexit_table      000000018001cd20 f   libucrt:onexit.obj
 0001:0001bd5c       _initialize_onexit_table   000000018001cd5c f   libucrt:onexit.obj
 0001:0001bd84       _register_onexit_function  000000018001cd84 f   libucrt:onexit.obj
 0001:0001be04       __acrt_uninitialize_command_line 000000018001ce04 f   libucrt:argv_data.obj
 0001:0001befc       __acrt_initialize          000000018001cefc f   libucrt:initialization.obj
 0001:0001bf10       __acrt_thread_attach       000000018001cf10 f   libucrt:initialization.obj
 0001:0001bf24       __acrt_thread_detach       000000018001cf24 f   libucrt:initialization.obj
 0001:0001bf34       __acrt_uninitialize        000000018001cf34 f   libucrt:initialization.obj
 0001:0001bf6c       __acrt_uninitialize_critical 000000018001cf6c f   libucrt:initialization.obj
 0001:0001bf7c       _initterm                  000000018001cf7c f   libucrt:initterm.obj
 0001:0001bfe0       _initterm_e                000000018001cfe0 f   libucrt:initterm.obj
 0001:0001c020       terminate                  000000018001d020 f   libucrt:terminate.obj
 0001:0001c040       strcpy_s                   000000018001d040 f   libucrt:strcpy_s.obj
 0001:0001c0a0       calloc                     000000018001d0a0 f   libucrt:calloc.obj
 0001:0001c0a8       wcsncmp                    000000018001d0a8 f   libucrt:wcsncmp.obj
 0001:0001c2e8       ??$ensure_buffer_is_big_enough@D@formatting_buffer@__crt_stdio_output@@QEAA_N_K@Z 000000018001d2e8 f i libucrt:output.obj
 0001:0001c390       ??$ensure_buffer_is_big_enough@_W@formatting_buffer@__crt_stdio_output@@QEAA_N_K@Z 000000018001d390 f i libucrt:output.obj
 0001:0001c43c       ??$is_wide_character_specifier@_W@__crt_stdio_output@@YA_N_K_WW4length_modifier@0@@Z 000000018001d43c f i libucrt:output.obj
 0001:0001c47c       ??$type_case_integer_parse_into_buffer@I@?$output_processor@_WV?$string_output_adapter@_W@__crt_stdio_output@@V?$standard_base@_WV?$string_output_adapter@_W@__crt_stdio_output@@@2@@__crt_stdio_output@@AEAAXII_N@Z 000000018001d47c f i libucrt:output.obj
 0001:0001c47c       ??$type_case_integer_parse_into_buffer@I@?$output_processor@_WV?$stream_output_adapter@_W@__crt_stdio_output@@V?$standard_base@_WV?$stream_output_adapter@_W@__crt_stdio_output@@@2@@__crt_stdio_output@@AEAAXII_N@Z 000000018001d47c f i libucrt:output.obj
 0001:0001c520       ??$type_case_integer_parse_into_buffer@_K@?$output_processor@_WV?$string_output_adapter@_W@__crt_stdio_output@@V?$standard_base@_WV?$string_output_adapter@_W@__crt_stdio_output@@@2@@__crt_stdio_output@@AEAAX_KI_N@Z 000000018001d520 f i libucrt:output.obj
 0001:0001c520       ??$type_case_integer_parse_into_buffer@_K@?$output_processor@_WV?$stream_output_adapter@_W@__crt_stdio_output@@V?$standard_base@_WV?$stream_output_adapter@_W@__crt_stdio_output@@@2@@__crt_stdio_output@@AEAAX_KI_N@Z 000000018001d520 f i libucrt:output.obj
 0001:0001c5c4       ??$write_multiple_characters@V?$stream_output_adapter@_W@__crt_stdio_output@@D@__crt_stdio_output@@YAXAEBV?$stream_output_adapter@_W@0@DHQEAH@Z 000000018001d5c4 f i libucrt:output.obj
 0001:0001c658       ??$write_multiple_characters@V?$string_output_adapter@_W@__crt_stdio_output@@D@__crt_stdio_output@@YAXAEBV?$string_output_adapter@_W@0@DHQEAH@Z 000000018001d658 f i libucrt:output.obj
 0001:0001c808       ?crop_zeroes@__crt_stdio_output@@YAXPEADQEAU__crt_locale_pointers@@@Z 000000018001d808 f i libucrt:output.obj
 0001:0001c874       ?force_decimal_point@__crt_stdio_output@@YAXPEADQEAU__crt_locale_pointers@@@Z 000000018001d874 f i libucrt:output.obj
 0001:0001c8e4       ?parse_int_from_format_string@?$output_processor@_WV?$string_output_adapter@_W@__crt_stdio_output@@V?$standard_base@_WV?$string_output_adapter@_W@__crt_stdio_output@@@2@@__crt_stdio_output@@AEAA_NQEAH@Z 000000018001d8e4 f i libucrt:output.obj
 0001:0001c8e4       ?parse_int_from_format_string@?$output_processor@_WV?$stream_output_adapter@_W@__crt_stdio_output@@V?$standard_base@_WV?$stream_output_adapter@_W@__crt_stdio_output@@@2@@__crt_stdio_output@@AEAA_NQEAH@Z 000000018001d8e4 f i libucrt:output.obj
 0001:0001c988       ?process@?$output_processor@_WV?$stream_output_adapter@_W@__crt_stdio_output@@V?$standard_base@_WV?$stream_output_adapter@_W@__crt_stdio_output@@@2@@__crt_stdio_output@@QEAAHXZ 000000018001d988 f i libucrt:output.obj
 0001:0001cbf4       ?process@?$output_processor@_WV?$string_output_adapter@_W@__crt_stdio_output@@V?$standard_base@_WV?$string_output_adapter@_W@__crt_stdio_output@@@2@@__crt_stdio_output@@QEAAHXZ 000000018001dbf4 f i libucrt:output.obj
 0001:0001ce70       ?state_case_size@?$output_processor@_WV?$stream_output_adapter@_W@__crt_stdio_output@@V?$standard_base@_WV?$stream_output_adapter@_W@__crt_stdio_output@@@2@@__crt_stdio_output@@AEAA_NXZ 000000018001de70 f i libucrt:output.obj
 0001:0001d008       ?state_case_size@?$output_processor@_WV?$string_output_adapter@_W@__crt_stdio_output@@V?$standard_base@_WV?$string_output_adapter@_W@__crt_stdio_output@@@2@@__crt_stdio_output@@AEAA_NXZ 000000018001e008 f i libucrt:output.obj
 0001:0001d1a0       ?state_case_type@?$output_processor@_WV?$stream_output_adapter@_W@__crt_stdio_output@@V?$standard_base@_WV?$stream_output_adapter@_W@__crt_stdio_output@@@2@@__crt_stdio_output@@AEAA_NXZ 000000018001e1a0 f i libucrt:output.obj
 0001:0001d480       ?state_case_type@?$output_processor@_WV?$string_output_adapter@_W@__crt_stdio_output@@V?$standard_base@_WV?$string_output_adapter@_W@__crt_stdio_output@@@2@@__crt_stdio_output@@AEAA_NXZ 000000018001e480 f i libucrt:output.obj
 0001:0001d74c       ?type_case_Z@?$output_processor@_WV?$string_output_adapter@_W@__crt_stdio_output@@V?$standard_base@_WV?$string_output_adapter@_W@__crt_stdio_output@@@2@@__crt_stdio_output@@AEAA_NXZ 000000018001e74c f i libucrt:output.obj
 0001:0001d74c       ?type_case_Z@?$output_processor@_WV?$stream_output_adapter@_W@__crt_stdio_output@@V?$standard_base@_WV?$stream_output_adapter@_W@__crt_stdio_output@@@2@@__crt_stdio_output@@AEAA_NXZ 000000018001e74c f i libucrt:output.obj
 0001:0001d7c8       ?type_case_a@?$output_processor@_WV?$string_output_adapter@_W@__crt_stdio_output@@V?$standard_base@_WV?$string_output_adapter@_W@__crt_stdio_output@@@2@@__crt_stdio_output@@AEAA_NXZ 000000018001e7c8 f i libucrt:output.obj
 0001:0001d7c8       ?type_case_a@?$output_processor@_WV?$stream_output_adapter@_W@__crt_stdio_output@@V?$standard_base@_WV?$stream_output_adapter@_W@__crt_stdio_output@@@2@@__crt_stdio_output@@AEAA_NXZ 000000018001e7c8 f i libucrt:output.obj
 0001:0001d9a8       ?type_case_c_tchar@?$output_processor@_WV?$string_output_adapter@_W@__crt_stdio_output@@V?$standard_base@_WV?$string_output_adapter@_W@__crt_stdio_output@@@2@@__crt_stdio_output@@AEAA_N_W@Z 000000018001e9a8 f i libucrt:output.obj
 0001:0001d9a8       ?type_case_c_tchar@?$output_processor@_WV?$stream_output_adapter@_W@__crt_stdio_output@@V?$standard_base@_WV?$stream_output_adapter@_W@__crt_stdio_output@@@2@@__crt_stdio_output@@AEAA_N_W@Z 000000018001e9a8 f i libucrt:output.obj
 0001:0001da50       ?type_case_integer@?$output_processor@_WV?$stream_output_adapter@_W@__crt_stdio_output@@V?$standard_base@_WV?$stream_output_adapter@_W@__crt_stdio_output@@@2@@__crt_stdio_output@@AEAA_NI_N@Z 000000018001ea50 f i libucrt:output.obj
 0001:0001da50       ?type_case_integer@?$output_processor@_WV?$string_output_adapter@_W@__crt_stdio_output@@V?$standard_base@_WV?$string_output_adapter@_W@__crt_stdio_output@@@2@@__crt_stdio_output@@AEAA_NI_N@Z 000000018001ea50 f i libucrt:output.obj
 0001:0001dc1c       ?type_case_n@?$output_processor@_WV?$stream_output_adapter@_W@__crt_stdio_output@@V?$standard_base@_WV?$stream_output_adapter@_W@__crt_stdio_output@@@2@@__crt_stdio_output@@AEAA_NXZ 000000018001ec1c f i libucrt:output.obj
 0001:0001dc1c       ?type_case_n@?$output_processor@_WV?$string_output_adapter@_W@__crt_stdio_output@@V?$standard_base@_WV?$string_output_adapter@_W@__crt_stdio_output@@@2@@__crt_stdio_output@@AEAA_NXZ 000000018001ec1c f i libucrt:output.obj
 0001:0001dcf8       ?type_case_s@?$output_processor@_WV?$stream_output_adapter@_W@__crt_stdio_output@@V?$standard_base@_WV?$stream_output_adapter@_W@__crt_stdio_output@@@2@@__crt_stdio_output@@AEAA_NXZ 000000018001ecf8 f i libucrt:output.obj
 0001:0001dcf8       ?type_case_s@?$output_processor@_WV?$string_output_adapter@_W@__crt_stdio_output@@V?$standard_base@_WV?$string_output_adapter@_W@__crt_stdio_output@@@2@@__crt_stdio_output@@AEAA_NXZ 000000018001ecf8 f i libucrt:output.obj
 0001:0001ddc0       ?write_stored_string_tchar@?$output_processor@_WV?$stream_output_adapter@_W@__crt_stdio_output@@V?$standard_base@_WV?$stream_output_adapter@_W@__crt_stdio_output@@@2@@__crt_stdio_output@@AEAA_N_W@Z 000000018001edc0 f i libucrt:output.obj
 0001:0001dec8       ?write_stored_string_tchar@?$output_processor@_WV?$string_output_adapter@_W@__crt_stdio_output@@V?$standard_base@_WV?$string_output_adapter@_W@__crt_stdio_output@@@2@@__crt_stdio_output@@AEAA_N_W@Z 000000018001eec8 f i libucrt:output.obj
 0001:0001dfb4       ?write_string@?$string_output_adapter@_W@__crt_stdio_output@@QEBAXQEB_WHQEAHAEAV__crt_deferred_errno_cache@@@Z 000000018001efb4 f i libucrt:output.obj
 0001:0001e05c       ?write_string_impl@?$output_adapter_common@_WV?$stream_output_adapter@_W@__crt_stdio_output@@@__crt_stdio_output@@IEBAXQEB_WHQEAHAEAV__crt_deferred_errno_cache@@@Z 000000018001f05c f i libucrt:output.obj
 0001:0001e160       __stdio_common_vfwprintf   000000018001f160 f   libucrt:output.obj
 0001:0001e1ec       __stdio_common_vswprintf   000000018001f1ec f   libucrt:output.obj
 0001:0001e1f4       ??$parse_integer@KV?$c_string_character_source@_W@__crt_strtox@@@__crt_strtox@@YAKQEAU__crt_locale_pointers@@V?$c_string_character_source@_W@0@H_N@Z 000000018001f1f4 f i libucrt:atox.obj
 0001:0001e8c0       strncmp                    000000018001f8c0 f   libucrt:strncmp.obj
 0001:0001e940       __acrt_call_reportfault    000000018001f940 f   libucrt:invalid_parameter.obj
 0001:0001ea9c       __acrt_initialize_invalid_parameter_handler 000000018001fa9c f   libucrt:invalid_parameter.obj
 0001:0001eaa4       _invalid_parameter         000000018001faa4 f   libucrt:invalid_parameter.obj
 0001:0001eb54       _invalid_parameter_noinfo  000000018001fb54 f   libucrt:invalid_parameter.obj
 0001:0001eb74       _invoke_watson             000000018001fb74 f   libucrt:invalid_parameter.obj
 0001:0001ef34       __acrt_freeptd             000000018001ff34 f   libucrt:per_thread_data.obj
 0001:0001ef78       __acrt_getptd              000000018001ff78 f   libucrt:per_thread_data.obj
 0001:0001f04c       __acrt_getptd_head         000000018002004c f   libucrt:per_thread_data.obj
 0001:0001f0f4       __acrt_getptd_noexit       00000001800200f4 f   libucrt:per_thread_data.obj
 0001:0001f1c0       __acrt_initialize_ptd      00000001800201c0 f   libucrt:per_thread_data.obj
 0001:0001f1fc       __acrt_uninitialize_ptd    00000001800201fc f   libucrt:per_thread_data.obj
 0001:0001f220       _free_base                 0000000180020220 f   libucrt:free_base.obj
 0001:0001f260       _query_app_type            0000000180020260 f   libucrt:report_runtime_error.obj
 0001:0001f3a8       _itow_s                    00000001800203a8 f   libucrt:xtoa.obj
 0001:0001f3c8       _set_error_mode            00000001800203c8 f   libucrt:set_error_mode.obj
 0001:0001f408       wcscat_s                   0000000180020408 f   libucrt:wcscat_s.obj
 0001:0001f488       wcscpy_s                   0000000180020488 f   libucrt:wcscpy_s.obj
 0001:0001f4f0       wcsncat_s                  00000001800204f0 f   libucrt:wcsncat_s.obj
 0001:0001f5f0       ??$__acrt_wcs_to_mbs_cp@U__crt_win32_buffer_no_resizing@@@@YAHQEB_WAEAV?$__crt_win32_buffer@DU__crt_win32_buffer_no_resizing@@@@I@Z 00000001800205f0 f i libucrt:getmodulefilenamea.obj
 0001:0001f704       __acrt_GetModuleFileNameA  0000000180020704 f   libucrt:getmodulefilenamea.obj
 0001:0001f824       __acrt_show_wide_message_box 0000000180020824 f   libucrt:crtmbox.obj
 0001:0001f8c8       __acrt_initialize_stdio    00000001800208c8 f   libucrt:_file.obj
 0001:0001f9e8       __acrt_iob_func            00000001800209e8 f   libucrt:_file.obj
 0001:0001f9fc       __acrt_uninitialize_stdio  00000001800209fc f   libucrt:_file.obj
 0001:0001fa58       _lock_file                 0000000180020a58 f   libucrt:_file.obj
 0001:0001fa64       _unlock_file               0000000180020a64 f   libucrt:_file.obj
 0001:0001fc8c       __acrt_stdio_flush_nolock  0000000180020c8c f   libucrt:fflush.obj
 0001:0001fd08       _fflush_nolock             0000000180020d08 f   libucrt:fflush.obj
 0001:0001fd54       _flushall                  0000000180020d54 f   libucrt:fflush.obj
 0001:0001fd5c       fflush                     0000000180020d5c f   libucrt:fflush.obj
 0001:0001fee4       setvbuf                    0000000180020ee4 f   libucrt:setvbuf.obj
 0001:0001ffc8       __acrt_get_sigabrt_handler 0000000180020fc8 f   libucrt:signal.obj
 0001:0001fff8       __acrt_initialize_signal_handlers 0000000180020ff8 f   libucrt:signal.obj
 0001:00020018       raise                      0000000180021018 f   libucrt:signal.obj
 0001:00020284       _malloc_base               0000000180021284 f   libucrt:malloc_base.obj
 0001:00020344       _tolower_l                 0000000180021344 f   libucrt:tolower_toupper.obj
 0001:00020484       tolower                    0000000180021484 f   libucrt:tolower_toupper.obj
 0001:000204b0       __acrt_update_locale_info  00000001800214b0 f   libucrt:locale_update.obj
 0001:000204e4       __acrt_update_multibyte_info 00000001800214e4 f   libucrt:locale_update.obj
 0001:00020588       __acrt_set_locale_changed  0000000180021588 f   libucrt:wsetlocale.obj
 0001:00020594       __acrt_uninitialize_locale 0000000180021594 f   libucrt:wsetlocale.obj
 0001:000205c4       __acrt_initialize_locks    00000001800215c4 f   libucrt:locks.obj
 0001:0002060c       __acrt_lock                000000018002160c f   libucrt:locks.obj
 0001:00020628       __acrt_uninitialize_locks  0000000180021628 f   libucrt:locks.obj
 0001:00020660       __acrt_unlock              0000000180021660 f   libucrt:locks.obj
 0001:0002067c       __acrt_get_developer_information_policy 000000018002167c f   libucrt:win_policies.obj
 0001:000206d0       __acrt_get_process_end_policy 00000001800216d0 f   libucrt:win_policies.obj
 0001:0002070c       __acrt_get_windowing_model_policy 000000018002170c f   libucrt:win_policies.obj
 0001:00020778       _calloc_base               0000000180021778 f   libucrt:calloc_base.obj
 0001:00020804       ??$__acrt_mbs_to_wcs_cp@U__crt_win32_buffer_internal_dynamic_resizing@@@@YAHQEBDAEAV?$__crt_win32_buffer@_WU__crt_win32_buffer_internal_dynamic_resizing@@@@I@Z 0000000180021804 f i libucrt:argv_wildcards.obj
 0001:0002097c       ??$__acrt_wcs_to_mbs_cp@U__crt_win32_buffer_internal_dynamic_resizing@@@@YAHQEB_WAEAV?$__crt_win32_buffer@DU__crt_win32_buffer_internal_dynamic_resizing@@@@I@Z 000000018002197c f i libucrt:argv_wildcards.obj
 0001:000211ac       __acrt_expand_narrow_argv_wildcards 00000001800221ac f   libucrt:argv_wildcards.obj
 0001:000218e0       __acrt_initialize_multibyte 00000001800228e0 f   libucrt:mbctype.obj
 0001:00021940       __acrt_update_thread_multibyte_data 0000000180022940 f   libucrt:mbctype.obj
 0001:0002195c       _setmbcp_nolock            000000018002295c f   libucrt:mbctype.obj
 0001:00021c90       _ismbblead                 0000000180022c90 f   libucrt:ismbbyte.obj
 0001:00021ca4       __acrt_initialize_command_line 0000000180022ca4 f   libucrt:argv_data.obj
 0001:00021ccc       __acrt_MultiByteToWideChar 0000000180022ccc f   libucrt:multibytetowidechar.obj
 0001:00021d28       __acrt_WideCharToMultiByte 0000000180022d28 f   libucrt:widechartomultibyte.obj
 0001:00021dc0       __dcrt_get_narrow_environment_from_os 0000000180022dc0 f   libucrt:get_environment_from_os.obj
 0001:00021ec4       _recalloc_base             0000000180022ec4 f   libucrt:recalloc.obj
 0001:00022134       __acrt_AppPolicyGetProcessTerminationMethodInternal 0000000180023134 f   libucrt:winapi_thunks.obj
 0001:00022184       __acrt_AppPolicyGetShowDeveloperDiagnosticInternal 0000000180023184 f   libucrt:winapi_thunks.obj
 0001:000221d4       __acrt_AppPolicyGetWindowingModelInternal 00000001800231d4 f   libucrt:winapi_thunks.obj
 0001:00022224       __acrt_AreFileApisANSI     0000000180023224 f   libucrt:winapi_thunks.obj
 0001:00022260       __acrt_FlsAlloc            0000000180023260 f   libucrt:winapi_thunks.obj
 0001:000222a8       __acrt_FlsFree             00000001800232a8 f   libucrt:winapi_thunks.obj
 0001:000222f0       __acrt_FlsGetValue         00000001800232f0 f   libucrt:winapi_thunks.obj
 0001:00022338       __acrt_FlsSetValue         0000000180023338 f   libucrt:winapi_thunks.obj
 0001:0002238c       __acrt_InitializeCriticalSectionEx 000000018002338c f   libucrt:winapi_thunks.obj
 0001:000223f0       __acrt_LCMapStringEx       00000001800233f0 f   libucrt:winapi_thunks.obj
 0001:000224cc       __acrt_LocaleNameToLCID    00000001800234cc f   libucrt:winapi_thunks.obj
 0001:0002251c       __acrt_MessageBoxW         000000018002351c f   libucrt:winapi_thunks.obj
 0001:00022590       __acrt_can_show_message_box 0000000180023590 f   libucrt:winapi_thunks.obj
 0001:00022600       __acrt_get_parent_window   0000000180023600 f   libucrt:winapi_thunks.obj
 0001:00022678       __acrt_initialize_winapi_thunks 0000000180023678 f   libucrt:winapi_thunks.obj
 0001:000226ac       __acrt_is_interactive      00000001800236ac f   libucrt:winapi_thunks.obj
 0001:00022774       __acrt_uninitialize_winapi_thunks 0000000180023774 f   libucrt:winapi_thunks.obj
 0001:000227b8       __acrt_initialize_heap     00000001800237b8 f   libucrt:heap_handle.obj
 0001:000227d4       __acrt_uninitialize_heap   00000001800237d4 f   libucrt:heap_handle.obj
 0001:000229dc       __acrt_initialize_lowio    00000001800239dc f   libucrt:ioinit.obj
 0001:00022a18       __acrt_uninitialize_lowio  0000000180023a18 f   libucrt:ioinit.obj
 0001:00022a58       __acrt_execute_initializers 0000000180023a58 f   libucrt:shared_initialization.obj
 0001:00022ad8       __acrt_execute_uninitializers 0000000180023ad8 f   libucrt:shared_initialization.obj
 0001:00022b14       __acrt_has_user_matherr    0000000180023b14 f   libucrt:matherr.obj
 0001:00022b34       __acrt_initialize_user_matherr 0000000180023b34 f   libucrt:matherr.obj
 0001:00022b3c       __acrt_invoke_user_matherr 0000000180023b3c f   libucrt:matherr.obj
 0001:00022b6c       __acrt_stdio_begin_temporary_buffering_nolock 0000000180023b6c f   libucrt:_sftbuf.obj
 0001:00022c3c       __acrt_stdio_end_temporary_buffering_nolock 0000000180023c3c f   libucrt:_sftbuf.obj
 0001:00022c78       isdigit                    0000000180023c78 f i libucrt:_ctype.obj
 0001:00022d0c       wcstol                     0000000180023d0c f   libucrt:strtox.obj
 0001:00022d38       _mbtowc_l                  0000000180023d38 f   libucrt:mbtowc.obj
 0001:00022eb4       mbtowc                     0000000180023eb4 f   libucrt:mbtowc.obj
 0001:00022ebc       _wctomb_s_l                0000000180023ebc f   libucrt:wctomb.obj
 0001:0002305c       wctomb_s                   000000018002405c f   libucrt:wctomb.obj
 0001:00023070       wcsnlen                    0000000180024070 f   libucrt:strnlen.obj
 0001:00023c1c       __acrt_fp_format           0000000180024c1c f   libucrt:cvt.obj
 0001:00023ea4       _fputwc_nolock             0000000180024ea4 f   libucrt:fputwc.obj
 0001:00024020       _fileno                    0000000180025020 f   libucrt:fileno.obj
 0001:00024048       _fputc_nolock              0000000180025048 f   libucrt:fputc.obj
 0001:00024060       _get_printf_count_output   0000000180025060 f   libucrt:printf_count_output.obj
 0001:00024078       __pctype_func              0000000180025078 f   libucrt:ctype.obj
 0001:000240a8       iswctype                   00000001800250a8 f   libucrt:iswctype.obj
 0001:00024118       _isctype_l                 0000000180025118 f   libucrt:isctype.obj
 0001:00024228       __acrt_add_locale_ref      0000000180025228 f   libucrt:locale_refcounting.obj
 0001:000242b4       __acrt_free_locale         00000001800252b4 f   libucrt:locale_refcounting.obj
 0001:0002442c       __acrt_locale_add_lc_time_reference 000000018002542c f   libucrt:locale_refcounting.obj
 0001:00024454       __acrt_locale_free_lc_time_if_unreferenced 0000000180025454 f   libucrt:locale_refcounting.obj
 0001:0002448c       __acrt_locale_release_lc_time_reference 000000018002548c f   libucrt:locale_refcounting.obj
 0001:000244b4       __acrt_release_locale_ref  00000001800254b4 f   libucrt:locale_refcounting.obj
 0001:0002455c       __acrt_update_thread_locale_data 000000018002555c f   libucrt:locale_refcounting.obj
 0001:000245cc       _updatetlocinfoEx_nolock   00000001800255cc f   libucrt:locale_refcounting.obj
 0001:00024634       _fcloseall                 0000000180025634 f   libucrt:closeall.obj
 0001:000246e8       __acrt_stdio_free_buffer_nolock 00000001800256e8 f   libucrt:_freebuf.obj
 0001:000247b4       _commit                    00000001800257b4 f   libucrt:commit.obj
 0001:000250b4       _write                     00000001800260b4 f   libucrt:write.obj
 0001:000251a0       _write_nolock              00000001800261a0 f   libucrt:write.obj
 0001:0002547c       _query_new_mode            000000018002647c f   libucrt:new_mode.obj
 0001:00025484       _isleadbyte_l              0000000180026484 f i libucrt:_wctype.obj
 0001:000257e8       __acrt_LCMapStringA        00000001800267e8 f   libucrt:lcmapstringa.obj
 0001:00025880       __acrt_locale_free_monetary 0000000180026880 f   libucrt:initmon.obj
 0001:0002598c       __acrt_locale_free_numeric 000000018002698c f   libucrt:initnum.obj
 0001:00025a50       __acrt_locale_free_time    0000000180026a50 f   libucrt:inittime.obj
 0001:00025b58       __acrt_GetStringTypeA      0000000180026b58 f   libucrt:getstringtypea.obj
 0001:00025ce8       strncpy_s                  0000000180026ce8 f   libucrt:strncpy_s.obj
 0001:00025e60       strpbrk                    0000000180026e60 f   libucrt:strpbrk.obj
 0001:00026240       _mbsdec                    0000000180027240 f   libucrt:mbsdec.obj
 0001:00026248       _mbsdec_l                  0000000180027248 f   libucrt:mbsdec.obj
 0001:000262f4       _msize_base                00000001800272f4 f   libucrt:msize.obj
 0001:00026330       _realloc_base              0000000180027330 f   libucrt:realloc_base.obj
 0001:00026494       __acrt_DownlevelLocaleNameToLCID 0000000180027494 f   libucrt:lcidtoname_downlevel.obj
 0001:000264c8       __acrt_lowio_create_handle_array 00000001800274c8 f   libucrt:osfinfo.obj
 0001:00026570       __acrt_lowio_destroy_handle_array 0000000180027570 f   libucrt:osfinfo.obj
 0001:000265c0       __acrt_lowio_ensure_fh_exists 00000001800275c0 f   libucrt:osfinfo.obj
 0001:00026668       __acrt_lowio_lock_fh       0000000180027668 f   libucrt:osfinfo.obj
 0001:00026690       __acrt_lowio_unlock_fh     0000000180027690 f   libucrt:osfinfo.obj
 0001:000266b8       _free_osfhnd               00000001800276b8 f   libucrt:osfinfo.obj
 0001:00026774       _get_osfhandle             0000000180027774 f   libucrt:osfinfo.obj
 0001:000267ec       _isatty                    00000001800277ec f   libucrt:isatty.obj
 0001:0002684c       ?__mbrtowc_utf8@__crt_mbstring@@YA_KPEA_WPEBD_KPEAU_Mbstatet@@@Z 000000018002784c f   libucrt:mbrtowc.obj
 0001:00026888       ?__mbsrtowcs_utf8@__crt_mbstring@@YA_KPEA_WPEAPEBD_KPEAU_Mbstatet@@@Z 0000000180027888 f   libucrt:mbrtowc.obj
 0001:00026a00       ?__c32rtomb_utf8@__crt_mbstring@@YA_KPEAD_UPEAU_Mbstatet@@@Z 0000000180027a00 f   libucrt:c32rtomb.obj
 0001:00026ab8       __acrt_fp_strflt_to_string 0000000180027ab8 f   libucrt:_fptostr.obj
 0001:00026ba0       ?divide@__crt_strtox@@YA_KAEAUbig_integer@1@AEBU21@@Z 0000000180027ba0 f i libucrt:cfout.obj
 0001:00026fcc       __acrt_fltout              0000000180027fcc f   libucrt:cfout.obj
 0001:000284cc       __acrt_stdio_flush_and_write_narrow_nolock 00000001800294cc f   libucrt:_flsbuf.obj
 0001:000285b8       __acrt_stdio_flush_and_write_wide_nolock 00000001800295b8 f   libucrt:_flsbuf.obj
 0001:000286a4       __acrt_GetStringTypeW      00000001800296a4 f   libucrt:getstringtypew.obj
 0001:000286ac       _fclose_nolock             00000001800296ac f   libucrt:fclose.obj
 0001:00028730       fclose                     0000000180029730 f   libucrt:fclose.obj
 0001:00028920       _lseeki64                  0000000180029920 f   libucrt:lseek.obj
 0001:00028928       _lseeki64_nolock           0000000180029928 f   libucrt:lseek.obj
 0001:00028930       _putwch_nolock             0000000180029930 f   libucrt:putwch.obj
 0001:0002896c       __strncnt                  000000018002996c f   libucrt:strncnt.obj
 0001:00028984       ?__mbrtoc32_utf8@__crt_mbstring@@YA_KPEA_UPEBD_KPEAU_Mbstatet@@@Z 0000000180029984 f   libucrt:mbrtoc32.obj
 0001:00028b60       fegetenv                   0000000180029b60 f   libucrt:fegetenv.obj
 0001:00028b80       fesetenv                   0000000180029b80 f   libucrt:fesetenv.obj
 0001:00028bd0       feholdexcept               0000000180029bd0 f   libucrt:feholdexcept.obj
 0001:00028c20       ceil                       0000000180029c20 f   libucrt:ceil.obj
 0001:00028cf0       log10                      0000000180029cf0 f   libucrt:log10.obj
 0001:0002929c       __acrt_stdio_allocate_buffer_nolock 000000018002a29c f   libucrt:_getbuf.obj
 0001:00029378       _close                     000000018002a378 f   libucrt:close.obj
 0001:0002941c       _close_nolock              000000018002a41c f   libucrt:close.obj
 0001:000294dc       ?__acrt_stdio_free_stream@@YAXV__crt_stdio_stream@@@Z 000000018002a4dc f   libucrt:stream.obj
 0001:000294f8       __dcrt_lowio_ensure_console_output_initialized 000000018002a4f8 f   libucrt:initcon.obj
 0001:0002954c       __dcrt_terminate_console_output 000000018002a54c f   libucrt:initcon.obj
 0001:00029568       __dcrt_write_console       000000018002a568 f   libucrt:initcon.obj
 0001:00029628       __acrt_fenv_get_control    000000018002a628 f   libucrt:_fenvutils.obj
 0001:0002971c       __acrt_fenv_get_status     000000018002a71c f   libucrt:_fenvutils.obj
 0001:00029770       __acrt_fenv_set_control    000000018002a770 f   libucrt:_fenvutils.obj
 0001:000298b8       __acrt_fenv_set_status     000000018002a8b8 f   libucrt:_fenvutils.obj
 0001:0002993c       _clearfp                   000000018002a93c f   libucrt:ieee.obj
 0001:00029ad0       _handle_error              000000018002aad0 f   libucrt:libm_error.obj
 0001:00029bf8       _handle_nan                000000018002abf8 f   libucrt:libm_error.obj
 0001:00029c20       __acrt_initialize_fma3     000000018002ac20 f   libucrt:fma3_available.obj
 0001:00029c90       _log10_special             000000018002ac90 f   libucrt:log_special.obj
 0001:00029d60       _get_fpsr                  000000018002ad60 f   libucrt:fpsr.obj
 0001:00029d70       _set_fpsr                  000000018002ad70 f   libucrt:fpsr.obj
 0001:00029d7a       _fclrf                     000000018002ad7a f   libucrt:fpsr.obj
 0001:00029d8e       _frnd                      000000018002ad8e f   libucrt:fpsr.obj
 0001:00029db0       _raise_exc                 000000018002adb0 f   libucrt:fpexcept.obj
 0001:00029dd8       _raise_exc_ex              000000018002add8 f   libucrt:fpexcept.obj
 0001:0002a0e8       _set_errno_from_matherr    000000018002b0e8 f   libucrt:fpexcept.obj
 0001:0002a118       _clrfp                     000000018002b118 f   libucrt:fpctrl.obj
 0001:0002a138       _ctrlfp                    000000018002b138 f   libucrt:fpctrl.obj
 0001:0002a1b4       _set_statfp                000000018002b1b4 f   libucrt:fpctrl.obj
 0001:0002a1d4       _statfp                    000000018002b1d4 f   libucrt:fpctrl.obj
 0001:0002a1e5       IsProcessorFeaturePresent  000000018002b1e5 f   kernel32:KERNEL32.dll
 0001:0002a1ec       ?DloadAcquireSectionWriteAccess@@YAXXZ 000000018002b1ec f i DelayImp:delayhlp.obj
 0001:0002a298       ?DloadGetSRWLockFunctionPointers@@YAEXZ 000000018002b298 f i DelayImp:delayhlp.obj
 0001:0002a334       ?DloadMakePermanentImageCommit@@YAXPEAX_K@Z 000000018002b334 f i DelayImp:delayhlp.obj
 0001:0002a3cc       ?DloadObtainSection@@YAPEAXPEAK0@Z 000000018002b3cc f i DelayImp:delayhlp.obj
 0001:0002a468       ?DloadProtectSection@@YAXKPEAK@Z 000000018002b468 f i DelayImp:delayhlp.obj
 0001:0002a4f8       ?DloadReleaseSectionWriteAccess@@YAXXZ 000000018002b4f8 f i DelayImp:delayhlp.obj
 0001:0002a58c       __delayLoadHelper2         000000018002b58c f   DelayImp:delayhlp.obj
 0001:0002a850       _FindPESection             000000018002b850 f   LIBCMT:pesect.obj
 0001:0002a8a0       _IsNonwritableInCurrentImage 000000018002b8a0 f   LIBCMT:pesect.obj
 0001:0002a8f0       _ValidateImageBase         000000018002b8f0 f   LIBCMT:pesect.obj
 0001:0002a920       __GSHandlerCheck           000000018002b920 f   LIBCMT:gshandler.obj
 0001:0002a940       __GSHandlerCheckCommon     000000018002b940 f   LIBCMT:gshandler.obj
 0001:0002a9b0       __chkstk                   000000018002b9b0 f   LIBCMT:chkstk.obj
 0001:0002a9b0       _alloca_probe              000000018002b9b0 f   LIBCMT:chkstk.obj
 0001:0002aa20       memcmp                     000000018002ba20 f   libvcruntime:memcmp.obj
 0001:0002aae8       strrchr                    000000018002bae8 f   libvcruntime:strrchr.obj
 0001:0002ac30       _guard_dispatch_icall_nop  000000018002bc30 f   LIBCMT:guard_dispatch.obj
 0002:00000000       __imp_GetModuleHandleA     000000018002c000     kernel32:KERNEL32.dll
 0002:00000008       __imp_LoadLibraryExA       000000018002c008     kernel32:KERNEL32.dll
 0002:00000010       __imp_RtlCaptureContext    000000018002c010     kernel32:KERNEL32.dll
 0002:00000018       __imp_RtlLookupFunctionEntry 000000018002c018     kernel32:KERNEL32.dll
 0002:00000020       __imp_RtlVirtualUnwind     000000018002c020     kernel32:KERNEL32.dll
 0002:00000028       __imp_UnhandledExceptionFilter 000000018002c028     kernel32:KERNEL32.dll
 0002:00000030       __imp_SetUnhandledExceptionFilter 000000018002c030     kernel32:KERNEL32.dll
 0002:00000038       __imp_GetCurrentProcess    000000018002c038     kernel32:KERNEL32.dll
 0002:00000040       __imp_TerminateProcess     000000018002c040     kernel32:KERNEL32.dll
 0002:00000048       __imp_IsProcessorFeaturePresent 000000018002c048     kernel32:KERNEL32.dll
 0002:00000050       __imp_IsDebuggerPresent    000000018002c050     kernel32:KERNEL32.dll
 0002:00000058       __imp_GetStartupInfoW      000000018002c058     kernel32:KERNEL32.dll
 0002:00000060       __imp_GetModuleHandleW     000000018002c060     kernel32:KERNEL32.dll
 0002:00000068       __imp_QueryPerformanceCounter 000000018002c068     kernel32:KERNEL32.dll
 0002:00000070       __imp_GetCurrentProcessId  000000018002c070     kernel32:KERNEL32.dll
 0002:00000078       __imp_GetCurrentThreadId   000000018002c078     kernel32:KERNEL32.dll
 0002:00000080       __imp_GetSystemTimeAsFileTime 000000018002c080     kernel32:KERNEL32.dll
 0002:00000088       __imp_InitializeSListHead  000000018002c088     kernel32:KERNEL32.dll
 0002:00000090       __imp_RtlUnwindEx          000000018002c090     kernel32:KERNEL32.dll
 0002:00000098       __imp_RtlPcToFileHeader    000000018002c098     kernel32:KERNEL32.dll
 0002:000000a0       __imp_RaiseException       000000018002c0a0     kernel32:KERNEL32.dll
 0002:000000a8       __imp_InterlockedFlushSList 000000018002c0a8     kernel32:KERNEL32.dll
 0002:000000b0       __imp_GetLastError         000000018002c0b0     kernel32:KERNEL32.dll
 0002:000000b8       __imp_SetLastError         000000018002c0b8     kernel32:KERNEL32.dll
 0002:000000c0       __imp_EnterCriticalSection 000000018002c0c0     kernel32:KERNEL32.dll
 0002:000000c8       __imp_LeaveCriticalSection 000000018002c0c8     kernel32:KERNEL32.dll
 0002:000000d0       __imp_DeleteCriticalSection 000000018002c0d0     kernel32:KERNEL32.dll
 0002:000000d8       __imp_InitializeCriticalSectionAndSpinCount 000000018002c0d8     kernel32:KERNEL32.dll
 0002:000000e0       __imp_TlsAlloc             000000018002c0e0     kernel32:KERNEL32.dll
 0002:000000e8       __imp_TlsGetValue          000000018002c0e8     kernel32:KERNEL32.dll
 0002:000000f0       __imp_TlsSetValue          000000018002c0f0     kernel32:KERNEL32.dll
 0002:000000f8       __imp_TlsFree              000000018002c0f8     kernel32:KERNEL32.dll
 0002:00000100       __imp_FreeLibrary          000000018002c100     kernel32:KERNEL32.dll
 0002:00000108       __imp_GetProcAddress       000000018002c108     kernel32:KERNEL32.dll
 0002:00000110       __imp_LoadLibraryExW       000000018002c110     kernel32:KERNEL32.dll
 0002:00000118       __imp_GetStdHandle         000000018002c118     kernel32:KERNEL32.dll
 0002:00000120       __imp_GetFileType          000000018002c120     kernel32:KERNEL32.dll
 0002:00000128       __imp_GetModuleFileNameW   000000018002c128     kernel32:KERNEL32.dll
 0002:00000130       __imp_GetModuleHandleExW   000000018002c130     kernel32:KERNEL32.dll
 0002:00000138       __imp_WriteConsoleW        000000018002c138     kernel32:KERNEL32.dll
 0002:00000140       __imp_ExitProcess          000000018002c140     kernel32:KERNEL32.dll
 0002:00000148       __imp_HeapFree             000000018002c148     kernel32:KERNEL32.dll
 0002:00000150       __imp_WriteFile            000000018002c150     kernel32:KERNEL32.dll
 0002:00000158       __imp_OutputDebugStringW   000000018002c158     kernel32:KERNEL32.dll
 0002:00000160       __imp_HeapAlloc            000000018002c160     kernel32:KERNEL32.dll
 0002:00000168       __imp_FindClose            000000018002c168     kernel32:KERNEL32.dll
 0002:00000170       __imp_FindFirstFileExW     000000018002c170     kernel32:KERNEL32.dll
 0002:00000178       __imp_FindNextFileW        000000018002c178     kernel32:KERNEL32.dll
 0002:00000180       __imp_IsValidCodePage      000000018002c180     kernel32:KERNEL32.dll
 0002:00000188       __imp_GetACP               000000018002c188     kernel32:KERNEL32.dll
 0002:00000190       __imp_GetOEMCP             000000018002c190     kernel32:KERNEL32.dll
 0002:00000198       __imp_GetCPInfo            000000018002c198     kernel32:KERNEL32.dll
 0002:000001a0       __imp_GetCommandLineA      000000018002c1a0     kernel32:KERNEL32.dll
 0002:000001a8       __imp_GetCommandLineW      000000018002c1a8     kernel32:KERNEL32.dll
 0002:000001b0       __imp_MultiByteToWideChar  000000018002c1b0     kernel32:KERNEL32.dll
 0002:000001b8       __imp_WideCharToMultiByte  000000018002c1b8     kernel32:KERNEL32.dll
 0002:000001c0       __imp_GetEnvironmentStringsW 000000018002c1c0     kernel32:KERNEL32.dll
 0002:000001c8       __imp_FreeEnvironmentStringsW 000000018002c1c8     kernel32:KERNEL32.dll
 0002:000001d0       __imp_LCMapStringW         000000018002c1d0     kernel32:KERNEL32.dll
 0002:000001d8       __imp_GetProcessHeap       000000018002c1d8     kernel32:KERNEL32.dll
 0002:000001e0       __imp_FlushFileBuffers     000000018002c1e0     kernel32:KERNEL32.dll
 0002:000001e8       __imp_GetConsoleCP         000000018002c1e8     kernel32:KERNEL32.dll
 0002:000001f0       __imp_GetConsoleMode       000000018002c1f0     kernel32:KERNEL32.dll
 0002:000001f8       __imp_GetStringTypeW       000000018002c1f8     kernel32:KERNEL32.dll
 0002:00000200       __imp_HeapSize             000000018002c200     kernel32:KERNEL32.dll
 0002:00000208       __imp_HeapReAlloc          000000018002c208     kernel32:KERNEL32.dll
 0002:00000210       __imp_SetStdHandle         000000018002c210     kernel32:KERNEL32.dll
 0002:00000218       __imp_GetFileSizeEx        000000018002c218     kernel32:KERNEL32.dll
 0002:00000220       __imp_SetFilePointerEx     000000018002c220     kernel32:KERNEL32.dll
 0002:00000228       __imp_CloseHandle          000000018002c228     kernel32:KERNEL32.dll
 0002:00000230       __imp_CreateFileW          000000018002c230     kernel32:KERNEL32.dll
 0002:00000238       __imp_GetSystemInfo        000000018002c238     kernel32:KERNEL32.dll
 0002:00000240       __imp_VirtualProtect       000000018002c240     kernel32:KERNEL32.dll
 0002:00000248       __imp_VirtualQuery         000000018002c248     kernel32:KERNEL32.dll
 0002:00000250       \177KERNEL32_NULL_THUNK_DATA 000000018002c250     kernel32:KERNEL32.dll
 0002:00000258       __guard_check_icall_fptr   000000018002c258     LIBCMT:guard_support.obj
 0002:00000260       __guard_dispatch_icall_fptr 000000018002c260     LIBCMT:guard_support.obj
 0002:00000268       __xc_a                     000000018002c268     LIBCMT:initializers.obj
 0002:00000278       _register_libiconv_        000000018002c278     binding.obj
 0002:00000280       __xc_z                     000000018002c280     LIBCMT:initializers.obj
 0002:00000288       __xi_a                     000000018002c288     LIBCMT:initializers.obj
 0002:00000290       __acrt_stdio_initializer   000000018002c290     libucrt:stdio_initializer.obj
 0002:00000298       __acrt_multibyte_initializer 000000018002c298     libucrt:multibyte_initializer.obj
 0002:000002a0       __acrt_tran_fma3_initializer 000000018002c2a0     libucrt:fma3_initializer.obj
 0002:000002a8       __xi_z                     000000018002c2a8     LIBCMT:initializers.obj
 0002:000002b0       __xp_a                     000000018002c2b0     LIBCMT:initializers.obj
 0002:000002b8       __acrt_locale_terminator   000000018002c2b8     libucrt:locale_initializer.obj
 0002:000002c0       __dcrt_console_output_terminator 000000018002c2c0     libucrt:console_output_initializer.obj
 0002:000002c8       __acrt_stdio_terminator    000000018002c2c8     libucrt:stdio_initializer.obj
 0002:000002d0       __xp_z                     000000018002c2d0     LIBCMT:initializers.obj
 0002:000002d8       __xt_a                     000000018002c2d8     LIBCMT:initializers.obj
 0002:000002e0       __xt_z                     000000018002c2e0     LIBCMT:initializers.obj
 0002:000002f0       __sz_node_exe              000000018002c2f0     node:node.exe
 0002:00000300       _pRawDllMain               000000018002c300     LIBCMT:dll_dllmain.obj
 0002:00000300       _pDefaultRawDllMain        000000018002c300     LIBCMT:dll_dllmain.obj
 0002:00000320       ??_7exception@std@@6B@     000000018002c320     LIBCMT:throw_bad_alloc.obj
 0002:00000330       ??_C@_0BC@EOODALEL@Unknown?5exception@ 000000018002c330     LIBCMT:throw_bad_alloc.obj
 0002:00000350       ??_7bad_alloc@std@@6B@     000000018002c350     LIBCMT:throw_bad_alloc.obj
 0002:00000360       ??_C@_0P@GHFPNOJB@bad?5allocation@ 000000018002c360     LIBCMT:throw_bad_alloc.obj
 0002:00000378       ??_7bad_array_new_length@std@@6B@ 000000018002c378     LIBCMT:throw_bad_alloc.obj
 0002:00000388       ??_C@_0BF@KINCDENJ@bad?5array?5new?5length@ 000000018002c388     LIBCMT:throw_bad_alloc.obj
 0002:000003a8       ??_7type_info@@6B@         000000018002c3a8     LIBCMT:std_type_info_static.obj
 0002:00000408       ??_C@_1DM@KHCHBNEB@?$AAa?$AAp?$AAi?$AA?9?$AAm?$AAs?$AA?9?$AAw?$AAi?$AAn?$AA?9?$AAc?$AAo?$AAr?$AAe@ 000000018002c408     libvcruntime:winapi_downlevel.obj
 0002:00000448       ??_C@_1DK@LPPGFMPP@?$AAa?$AAp?$AAi?$AA?9?$AAm?$AAs?$AA?9?$AAw?$AAi?$AAn?$AA?9?$AAc?$AAo?$AAr?$AAe@ 000000018002c448     libvcruntime:winapi_downlevel.obj
 0002:00000488       ??_C@_1BC@GDMECMAK@?$AAk?$AAe?$AAr?$AAn?$AAe?$AAl?$AA3?$AA2@ 000000018002c488     libvcruntime:winapi_downlevel.obj
 0002:000004a0       ??_C@_1BA@PFFKHIOG@?$AAa?$AAp?$AAi?$AA?9?$AAm?$AAs?$AA?9@ 000000018002c4a0     libvcruntime:winapi_downlevel.obj
 0002:000004b0       ??_C@_1BA@IAIFMGEF@?$AAe?$AAx?$AAt?$AA?9?$AAm?$AAs?$AA?9@ 000000018002c4b0     libvcruntime:winapi_downlevel.obj
 0002:000004c8       ??_C@_08KNHFBNJ@FlsAlloc@  000000018002c4c8     libvcruntime:winapi_downlevel.obj
 0002:000004e0       ??_C@_07PEJMOBNF@FlsFree@  000000018002c4e0     libvcruntime:winapi_downlevel.obj
 0002:000004f0       ??_C@_0M@GDNOONDI@FlsGetValue@ 000000018002c4f0     libvcruntime:winapi_downlevel.obj
 0002:00000508       ??_C@_0M@JCPCPOEF@FlsSetValue@ 000000018002c508     libvcruntime:winapi_downlevel.obj
 0002:00000520       ??_C@_0BM@HCFOFFN@InitializeCriticalSectionEx@ 000000018002c520     libvcruntime:winapi_downlevel.obj
 0002:00000540       _pDestructExceptionObject  000000018002c540     libvcruntime:ehhelpers.obj
 0002:00000890       ??_C@_08EHJDFFNH@__based?$CI@ 000000018002c890     libvcruntime:undname.obj
 0002:000008a0       ??_C@_07KOLFKCDI@__cdecl@  000000018002c8a0     libvcruntime:undname.obj
 0002:000008a8       ??_C@_08GHMPAG@__pascal@   000000018002c8a8     libvcruntime:undname.obj
 0002:000008b8       ??_C@_09IFJBGAPI@__stdcall@ 000000018002c8b8     libvcruntime:undname.obj
 0002:000008c8       ??_C@_0L@NPHFGOKO@__thiscall@ 000000018002c8c8     libvcruntime:undname.obj
 0002:000008d8       ??_C@_0L@JMKHOMEK@__fastcall@ 000000018002c8d8     libvcruntime:undname.obj
 0002:000008e8       ??_C@_0N@BCKKPABJ@__vectorcall@ 000000018002c8e8     libvcruntime:undname.obj
 0002:000008f8       ??_C@_09HIJEGCPM@__clrcall@ 000000018002c8f8     libvcruntime:undname.obj
 0002:00000904       ??_C@_06GHPCKEAG@__eabi@   000000018002c904     libvcruntime:undname.obj
 0002:00000910       ??_C@_09IOPIDJLG@__swift_1@ 000000018002c910     libvcruntime:undname.obj
 0002:00000920       ??_C@_09KFNFGKHF@__swift_2@ 000000018002c920     libvcruntime:undname.obj
 0002:00000930       ??_C@_07JOMMBBKO@__ptr64@  000000018002c930     libvcruntime:undname.obj
 0002:00000938       ??_C@_0L@PILCLIHE@__restrict@ 000000018002c938     libvcruntime:undname.obj
 0002:00000948       ??_C@_0M@GFIIJFMG@__unaligned@ 000000018002c948     libvcruntime:undname.obj
 0002:00000958       ??_C@_09DHDLOLLB@restrict?$CI@ 000000018002c958     libvcruntime:undname.obj
 0002:00000964       ??_C@_04NIHEBCM@?5new@     000000018002c964     libvcruntime:undname.obj
 0002:00000970       ??_C@_07FPCDHGMM@?5delete@ 000000018002c970     libvcruntime:undname.obj
 0002:00000978       ??_C@_01NEMOKFLO@?$DN@     000000018002c978     libvcruntime:undname.obj
 0002:0000097c       ??_C@_02GPIOPFAK@?$DO?$DO@ 000000018002c97c     libvcruntime:undname.obj
 0002:00000980       ??_C@_02FODMEDOG@?$DM?$DM@ 000000018002c980     libvcruntime:undname.obj
 0002:00000984       ??_C@_01DCLJPIOD@?$CB@     000000018002c984     libvcruntime:undname.obj
 0002:00000988       ??_C@_02EGOFBIJA@?$DN?$DN@ 000000018002c988     libvcruntime:undname.obj
 0002:0000098c       ??_C@_02FDNJECIE@?$CB?$DN@ 000000018002c98c     libvcruntime:undname.obj
 0002:00000990       ??_C@_02GPECMEKF@?$FL?$FN@ 000000018002c990     libvcruntime:undname.obj
 0002:00000998       ??_C@_08LHJFAFGD@operator@ 000000018002c998     libvcruntime:undname.obj
 0002:000009a4       ??_C@_02HBOOOICD@?9?$DO@   000000018002c9a4     libvcruntime:undname.obj
 0002:000009a8       ??_C@_01NBENCBCI@?$CK@     000000018002c9a8     libvcruntime:undname.obj
 0002:000009ac       ??_C@_02ECNGHCIF@?$CL?$CL@ 000000018002c9ac     libvcruntime:undname.obj
 0002:000009b0       ??_C@_02BAABKJLB@?9?9@     000000018002c9b0     libvcruntime:undname.obj
 0002:000009b4       ??_C@_01JOAMLHOP@?9@       000000018002c9b4     libvcruntime:undname.obj
 0002:000009b8       ??_C@_01MIFGBAGJ@?$CL@     000000018002c9b8     libvcruntime:undname.obj
 0002:000009bc       ??_C@_01HNPIGOCE@?$CG@     000000018002c9bc     libvcruntime:undname.obj
 0002:000009c0       ??_C@_03MNHNFDLC@?9?$DO?$CK@ 000000018002c9c0     libvcruntime:undname.obj
 0002:000009c4       ??_C@_01KMDKNFGN@?1@       000000018002c9c4     libvcruntime:undname.obj
 0002:000009c8       ??_C@_01FGNFDNOH@?$CF@     000000018002c9c8     libvcruntime:undname.obj
 0002:000009cc       ??_C@_01MNNFJEPP@?$DM@     000000018002c9cc     libvcruntime:undname.obj
 0002:000009d0       ??_C@_02EHCHHCKH@?$DM?$DN@ 000000018002c9d0     libvcruntime:undname.obj
 0002:000009d4       ??_C@_01PPODPGHN@?$DO@     000000018002c9d4     libvcruntime:undname.obj
 0002:000009d8       ??_C@_02EEKDKGMJ@?$DO?$DN@ 000000018002c9d8     libvcruntime:undname.obj
 0002:000009dc       ??_C@_01IHBHIGKO@?0@       000000018002c9dc     libvcruntime:undname.obj
 0002:000009e0       ??_C@_02HCKGKOFO@?$CI?$CJ@ 000000018002c9e0     libvcruntime:undname.obj
 0002:000009e4       ??_C@_01PJKLJHI@?$HO@      000000018002c9e4     libvcruntime:undname.obj
 0002:000009e8       ??_C@_01JKBOJNNK@?$FO@     000000018002c9e8     libvcruntime:undname.obj
 0002:000009ec       ??_C@_01DNKMNLPK@?$HM@     000000018002c9ec     libvcruntime:undname.obj
 0002:000009f0       ??_C@_02PPKAJPJL@?$CG?$CG@ 000000018002c9f0     libvcruntime:undname.obj
 0002:000009f4       ??_C@_02NONPIBCD@?$HM?$HM@ 000000018002c9f4     libvcruntime:undname.obj
 0002:000009f8       ??_C@_02FPIMKNGF@?$CK?$DN@ 000000018002c9f8     libvcruntime:undname.obj
 0002:000009fc       ??_C@_02FOEOMHFC@?$CL?$DN@ 000000018002c9fc     libvcruntime:undname.obj
 0002:00000a00       ??_C@_02FKMDLLOA@?9?$DN@   000000018002ca00     libvcruntime:undname.obj
 0002:00000a04       ??_C@_02FJEHGPIO@?1?$DN@   000000018002ca04     libvcruntime:undname.obj
 0002:00000a08       ??_C@_02FENAOKFI@?$CF?$DN@ 000000018002ca08     libvcruntime:undname.obj
 0002:00000a0c       ??_C@_03IKFCCPFF@?$DO?$DO?$DN@ 000000018002ca0c     libvcruntime:undname.obj
 0002:00000a10       ??_C@_03CDNPDDLA@?$DM?$DM?$DN@ 000000018002ca10     libvcruntime:undname.obj
 0002:00000a14       ??_C@_02FGJGFEAB@?$CG?$DN@ 000000018002ca14     libvcruntime:undname.obj
 0002:00000a18       ??_C@_02DHLNPPGH@?$HM?$DN@ 000000018002ca18     libvcruntime:undname.obj
 0002:00000a1c       ??_C@_02MHEGNOJ@?$FO?$DN@  000000018002ca1c     libvcruntime:undname.obj
 0002:00000a20       ??_C@_09IFPLHPGF@?$GAvftable?8@ 000000018002ca20     libvcruntime:undname.obj
 0002:00000a30       ??_C@_09BLBHBJP@?$GAvbtable?8@ 000000018002ca30     libvcruntime:undname.obj
 0002:00000a40       ??_C@_07FEEIOKP@?$GAvcall?8@ 000000018002ca40     libvcruntime:undname.obj
 0002:00000a48       ??_C@_08LLFFHHDJ@?$GAtypeof?8@ 000000018002ca48     libvcruntime:undname.obj
 0002:00000a58       ??_C@_0BF@KDPPACIK@?$GAlocal?5static?5guard?8@ 000000018002ca58     libvcruntime:undname.obj
 0002:00000a70       ??_C@_08OBABFOLI@?$GAstring?8@ 000000018002ca70     libvcruntime:undname.obj
 0002:00000a80       ??_C@_0BD@JDLKDPAB@?$GAvbase?5destructor?8@ 000000018002ca80     libvcruntime:undname.obj
 0002:00000a98       ??_C@_0BN@DEGPLNFK@?$GAvector?5deleting?5destructor?8@ 000000018002ca98     libvcruntime:undname.obj
 0002:00000ab8       ??_C@_0BO@OBMKPJIG@?$GAdefault?5constructor?5closure?8@ 000000018002cab8     libvcruntime:undname.obj
 0002:00000ad8       ??_C@_0BN@IMDCHIKM@?$GAscalar?5deleting?5destructor?8@ 000000018002cad8     libvcruntime:undname.obj
 0002:00000af8       ??_C@_0BO@PFGOCPJJ@?$GAvector?5constructor?5iterator?8@ 000000018002caf8     libvcruntime:undname.obj
 0002:00000b18       ??_C@_0BN@LFPFMEDL@?$GAvector?5destructor?5iterator?8@ 000000018002cb18     libvcruntime:undname.obj
 0002:00000b38       ??_C@_0CE@IKBNEHA@?$GAvector?5vbase?5constructor?5itera@ 000000018002cb38     libvcruntime:undname.obj
 0002:00000b60       ??_C@_0BL@NILFHHPC@?$GAvirtual?5displacement?5map?8@ 000000018002cb60     libvcruntime:undname.obj
 0002:00000b80       ??_C@_0CB@JONCMFFK@?$GAeh?5vector?5constructor?5iterator@ 000000018002cb80     libvcruntime:undname.obj
 0002:00000ba8       ??_C@_0CA@GCEOPDGL@?$GAeh?5vector?5destructor?5iterator?8@ 000000018002cba8     libvcruntime:undname.obj
 0002:00000bc8       ??_C@_0CH@OOJPLCPH@?$GAeh?5vector?5vbase?5constructor?5it@ 000000018002cbc8     libvcruntime:undname.obj
 0002:00000bf0       ??_C@_0BL@LLKPOHJI@?$GAcopy?5constructor?5closure?8@ 000000018002cbf0     libvcruntime:undname.obj
 0002:00000c10       ??_C@_0BA@KBCDOMBN@?$GAudt?5returning?8@ 000000018002cc10     libvcruntime:undname.obj
 0002:00000c20       ??_C@_03KLGMFNMG@?$GAEH@   000000018002cc20     libvcruntime:undname.obj
 0002:00000c24       ??_C@_05KHLCHHI@?$GARTTI@  000000018002cc24     libvcruntime:undname.obj
 0002:00000c30       ??_C@_0BA@KKLDJDLB@?$GAlocal?5vftable?8@ 000000018002cc30     libvcruntime:undname.obj
 0002:00000c40       ??_C@_0CE@IIHCMGGL@?$GAlocal?5vftable?5constructor?5clos@ 000000018002cc40     libvcruntime:undname.obj
 0002:00000c64       ??_C@_06FHBGPFGH@?5new?$FL?$FN@ 000000018002cc64     libvcruntime:undname.obj
 0002:00000c70       ??_C@_09LBNFPBCA@?5delete?$FL?$FN@ 000000018002cc70     libvcruntime:undname.obj
 0002:00000c80       ??_C@_0P@HJKNJFNN@?$GAomni?5callsig?8@ 000000018002cc80     libvcruntime:undname.obj
 0002:00000c90       ??_C@_0BL@CNOONJFP@?$GAplacement?5delete?5closure?8@ 000000018002cc90     libvcruntime:undname.obj
 0002:00000cb0       ??_C@_0BN@CKNJLHMB@?$GAplacement?5delete?$FL?$FN?5closure?8@ 000000018002ccb0     libvcruntime:undname.obj
 0002:00000cd0       ??_C@_0CG@CFDHKGGD@?$GAmanaged?5vector?5constructor?5ite@ 000000018002ccd0     libvcruntime:undname.obj
 0002:00000cf8       ??_C@_0CF@IMGKMJNO@?$GAmanaged?5vector?5destructor?5iter@ 000000018002ccf8     libvcruntime:undname.obj
 0002:00000d20       ??_C@_0CG@HLDDJMAG@?$GAeh?5vector?5copy?5constructor?5ite@ 000000018002cd20     libvcruntime:undname.obj
 0002:00000d48       ??_C@_0CM@FCBBDIGB@?$GAeh?5vector?5vbase?5copy?5construct@ 000000018002cd48     libvcruntime:undname.obj
 0002:00000d78       ??_C@_0BL@CLIPGLGB@?$GAdynamic?5initializer?5for?5?8@ 000000018002cd78     libvcruntime:undname.obj
 0002:00000d98       ??_C@_0CB@PDBIFEP@?$GAdynamic?5atexit?5destructor?5for?5@ 000000018002cd98     libvcruntime:undname.obj
 0002:00000dc0       ??_C@_0CD@CGAJBKEJ@?$GAvector?5copy?5constructor?5iterat@ 000000018002cdc0     libvcruntime:undname.obj
 0002:00000de8       ??_C@_0CJ@GJELGAMM@?$GAvector?5vbase?5copy?5constructor?5@ 000000018002cde8     libvcruntime:undname.obj
 0002:00000e18       ??_C@_0CL@FGIJHLCE@?$GAmanaged?5vector?5copy?5constructo@ 000000018002ce18     libvcruntime:undname.obj
 0002:00000e48       ??_C@_0BM@PMGGMLDN@?$GAlocal?5static?5thread?5guard?8@ 000000018002ce48     libvcruntime:undname.obj
 0002:00000e68       ??_C@_0N@BDNMDMOL@operator?5?$CC?$CC?5@ 000000018002ce68     libvcruntime:undname.obj
 0002:00000e78       ??_C@_0BC@GGEBGALA@operator?5co_await@ 000000018002ce78     libvcruntime:undname.obj
 0002:00000e90       ??_C@_0M@GAAIMMOH@operator?$DM?$DN?$DO@ 000000018002ce90     libvcruntime:undname.obj
 0002:00000ea0       ??_C@_0BC@DAFEJGAK@?5Type?5Descriptor?8@ 000000018002cea0     libvcruntime:undname.obj
 0002:00000eb8       ??_C@_0BM@LDKODKLH@?5Base?5Class?5Descriptor?5at?5?$CI@ 000000018002ceb8     libvcruntime:undname.obj
 0002:00000ed8       ??_C@_0BD@LGICGFMM@?5Base?5Class?5Array?8@ 000000018002ced8     libvcruntime:undname.obj
 0002:00000ef0       ??_C@_0BN@MECKDCOJ@?5Class?5Hierarchy?5Descriptor?8@ 000000018002cef0     libvcruntime:undname.obj
 0002:00000f10       ??_C@_0BK@CFCOFLF@?5Complete?5Object?5Locator?8@ 000000018002cf10     libvcruntime:undname.obj
 0002:000010a0       ??_C@_1FE@LHBLIKM@?$AAA?$AAs?$AAs?$AAe?$AAr?$AAt?$AAi?$AAo?$AAn?$AA?5?$AAf?$AAa?$AAi?$AAl?$AAe?$AAd?$AA?3?$AA?5?$AA?$CF?$AAT?$AAs?$AA?0?$AA?5?$AAf?$AAi?$AAl?$AAe?$AA?5?$AA?$CF?$AAT?$AAs?$AA?0@ 000000018002d0a0     libucrt:assert.obj
 0002:00001100       ??_C@_1EK@MBDPDCGA@?$AAM?$AAi?$AAc?$AAr?$AAo?$AAs?$AAo?$AAf?$AAt?$AA?5?$AAV?$AAi?$AAs?$AAu?$AAa?$AAl?$AA?5?$AAC?$AA?$CL?$AA?$CL?$AA?5?$AAR?$AAu?$AAn?$AAt?$AAi?$AAm?$AAe?$AA?5?$AAL?$AAi?$AAb@ 000000018002d100     libucrt:assert.obj
 0002:00001150       ??_C@_1CE@OJBNHDMO@?$AAA?$AAs?$AAs?$AAe?$AAr?$AAt?$AAi?$AAo?$AAn?$AA?5?$AAf?$AAa?$AAi?$AAl?$AAe?$AAd?$AA?$CB?$AA?$AA@ 000000018002d150     libucrt:assert.obj
 0002:00001178       ??_C@_1BE@PHKBBGE@?$AAP?$AAr?$AAo?$AAg?$AAr?$AAa?$AAm?$AA?3?$AA?5?$AA?$AA@ 000000018002d178     libucrt:assert.obj
 0002:00001190       ??_C@_1O@HEMHKNDC@?$AAF?$AAi?$AAl?$AAe?$AA?3?$AA?5?$AA?$AA@ 000000018002d190     libucrt:assert.obj
 0002:000011a0       ??_C@_1O@KCAFKHJE@?$AAL?$AAi?$AAn?$AAe?$AA?3?$AA?5?$AA?$AA@ 000000018002d1a0     libucrt:assert.obj
 0002:000011b0       ??_C@_1BK@PEDCIPMA@?$AAE?$AAx?$AAp?$AAr?$AAe?$AAs?$AAs?$AAi?$AAo?$AAn?$AA?3?$AA?5?$AA?$AA@ 000000018002d1b0     libucrt:assert.obj
 0002:000011d0       ??_C@_1OA@EGMLFBHJ@?$AAF?$AAo?$AAr?$AA?5?$AAi?$AAn?$AAf?$AAo?$AAr?$AAm?$AAa?$AAt?$AAi?$AAo?$AAn?$AA?5?$AAo?$AAn?$AA?5?$AAh?$AAo?$AAw?$AA?5?$AAy?$AAo?$AAu?$AAr?$AA?5?$AAp?$AAr?$AAo?$AAg@ 000000018002d1d0     libucrt:assert.obj
 0002:000012b0       ??_C@_1HK@POCJMFGK@?$AA?$CI?$AAP?$AAr?$AAe?$AAs?$AAs?$AA?5?$AAR?$AAe?$AAt?$AAr?$AAy?$AA?5?$AAt?$AAo?$AA?5?$AAd?$AAe?$AAb?$AAu?$AAg?$AA?5?$AAt?$AAh?$AAe?$AA?5?$AAa?$AAp?$AAp?$AAl?$AAi?$AAc@ 000000018002d2b0     libucrt:assert.obj
 0002:00001330       ??_C@_17LGKOMLJ@?$AA?4?$AA?4?$AA?4?$AA?$AA@ 000000018002d330     libucrt:assert.obj
 0002:00001338       ??_C@_13LBAGMAIH@?$AA?6?$AA?$AA@ 000000018002d338     libucrt:assert.obj
 0002:0000133c       ??_C@_15IABLJNFO@?$AA?6?$AA?6?$AA?$AA@ 000000018002d33c     libucrt:assert.obj
 0002:00001348       ??_C@_1CO@EAEJAADC@?$AA?$DM?$AAp?$AAr?$AAo?$AAg?$AAr?$AAa?$AAm?$AA?5?$AAn?$AAa?$AAm?$AAe?$AA?5?$AAu?$AAn?$AAk?$AAn?$AAo?$AAw?$AAn?$AA?$DO?$AA?$AA@ 000000018002d348     libucrt:assert.obj
 0002:00001380       __acrt_exception_action_table 000000018002d380     libucrt:exception_filter.obj
 0002:00001440       __acrt_signal_action_table_count 000000018002d440     libucrt:exception_filter.obj
 0002:00001448       __acrt_signal_action_first_fpe_index 000000018002d448     libucrt:exception_filter.obj
 0002:00001450       __acrt_signal_action_fpe_count 000000018002d450     libucrt:exception_filter.obj
 0002:00001458       ??_C@_1BI@BGOHAHKC@?$AAm?$AAs?$AAc?$AAo?$AAr?$AAe?$AAe?$AA?4?$AAd?$AAl?$AAl?$AA?$AA@ 000000018002d458     libucrt:exit.obj
 0002:00001470       ??_C@_0P@MIGLKIOC@CorExitProcess?$AA@ 000000018002d470     libucrt:exit.obj
 0002:00001580       standard_lookup_table      000000018002d580     libucrt:output.obj
 0002:000015e0       ??_C@_1O@CEDCILHN@?$AA?$CI?$AAn?$AAu?$AAl?$AAl?$AA?$CJ?$AA?$AA@ 000000018002d5e0     libucrt:output.obj
 0002:000015f0       ??_C@_06OJHGLDPL@?$CInull?$CJ?$AA@ 000000018002d5f0     libucrt:output.obj
 0002:00001600       __lc_time_c                000000018002d600     libucrt:nlsdata.obj
 0002:000018c0       ??_C@_03KOEHGMDN@Sun?$AA@  000000018002d8c0     libucrt:nlsdata.obj
 0002:000018c4       ??_C@_03PDAGKDH@Mon?$AA@   000000018002d8c4     libucrt:nlsdata.obj
 0002:000018c8       ??_C@_03NAGEINEP@Tue?$AA@  000000018002d8c8     libucrt:nlsdata.obj
 0002:000018cc       ??_C@_03MHOMLAJA@Wed?$AA@  000000018002d8cc     libucrt:nlsdata.obj
 0002:000018d0       ??_C@_03IOFIKPDN@Thu?$AA@  000000018002d8d0     libucrt:nlsdata.obj
 0002:000018d4       ??_C@_03IDIOELNC@Fri?$AA@  000000018002d8d4     libucrt:nlsdata.obj
 0002:000018d8       ??_C@_03FEFJNEK@Sat?$AA@   000000018002d8d8     libucrt:nlsdata.obj
 0002:000018dc       ??_C@_06OOPIFAJ@Sunday?$AA@ 000000018002d8dc     libucrt:nlsdata.obj
 0002:000018e4       ??_C@_06JLEDEDGH@Monday?$AA@ 000000018002d8e4     libucrt:nlsdata.obj
 0002:000018f0       ??_C@_07BAAGCFCM@Tuesday?$AA@ 000000018002d8f0     libucrt:nlsdata.obj
 0002:000018f8       ??_C@_09DLIGFAKA@Wednesday?$AA@ 000000018002d8f8     libucrt:nlsdata.obj
 0002:00001908       ??_C@_08HACCIKIA@Thursday?$AA@ 000000018002d908     libucrt:nlsdata.obj
 0002:00001914       ??_C@_06JECMNKMI@Friday?$AA@ 000000018002d914     libucrt:nlsdata.obj
 0002:00001920       ??_C@_08INBOOONO@Saturday?$AA@ 000000018002d920     libucrt:nlsdata.obj
 0002:0000192c       ??_C@_03JIHJHPIE@Jan?$AA@  000000018002d92c     libucrt:nlsdata.obj
 0002:00001930       ??_C@_03HJBDCHOM@Feb?$AA@  000000018002d930     libucrt:nlsdata.obj
 0002:00001934       ??_C@_03ODNJBKGA@Mar?$AA@  000000018002d934     libucrt:nlsdata.obj
 0002:00001938       ??_C@_03LEOLGMJP@Apr?$AA@  000000018002d938     libucrt:nlsdata.obj
 0002:0000193c       ??_C@_03CNMDKL@May?$AA@    000000018002d93c     libucrt:nlsdata.obj
 0002:00001940       ??_C@_03IDFGHECI@Jun?$AA@  000000018002d940     libucrt:nlsdata.obj
 0002:00001944       ??_C@_03LBGABGKK@Jul?$AA@  000000018002d944     libucrt:nlsdata.obj
 0002:00001948       ??_C@_03IFJFEIGA@Aug?$AA@  000000018002d948     libucrt:nlsdata.obj
 0002:0000194c       ??_C@_03GGCAPAJC@Sep?$AA@  000000018002d94c     libucrt:nlsdata.obj
 0002:00001950       ??_C@_03BMAOKBAD@Oct?$AA@  000000018002d950     libucrt:nlsdata.obj
 0002:00001954       ??_C@_03JPJOFNIA@Nov?$AA@  000000018002d954     libucrt:nlsdata.obj
 0002:00001958       ??_C@_03MKABNOCG@Dec?$AA@  000000018002d958     libucrt:nlsdata.obj
 0002:00001960       ??_C@_07CGJPFGJA@January?$AA@ 000000018002d960     libucrt:nlsdata.obj
 0002:00001968       ??_C@_08GNJGEPFN@February?$AA@ 000000018002d968     libucrt:nlsdata.obj
 0002:00001974       ??_C@_05HPCKOFNC@March?$AA@ 000000018002d974     libucrt:nlsdata.obj
 0002:0000197c       ??_C@_05DMJDNLEJ@April?$AA@ 000000018002d97c     libucrt:nlsdata.obj
 0002:00001984       ??_C@_04CNLMGBGM@June?$AA@ 000000018002d984     libucrt:nlsdata.obj
 0002:0000198c       ??_C@_04MIEPOIFP@July?$AA@ 000000018002d98c     libucrt:nlsdata.obj
 0002:00001994       ??_C@_06LBBHFDDG@August?$AA@ 000000018002d994     libucrt:nlsdata.obj
 0002:000019a0       ??_C@_09BHHEALKD@September?$AA@ 000000018002d9a0     libucrt:nlsdata.obj
 0002:000019b0       ??_C@_07JJNFCEND@October?$AA@ 000000018002d9b0     libucrt:nlsdata.obj
 0002:000019b8       ??_C@_08HCHEGEOA@November?$AA@ 000000018002d9b8     libucrt:nlsdata.obj
 0002:000019c8       ??_C@_08EDHMEBNP@December?$AA@ 000000018002d9c8     libucrt:nlsdata.obj
 0002:000019d4       ??_C@_02DEDBPAFC@AM?$AA@   000000018002d9d4     libucrt:nlsdata.obj
 0002:000019d8       ??_C@_02CJNFDJBF@PM?$AA@   000000018002d9d8     libucrt:nlsdata.obj
 0002:000019e0       ??_C@_08BPBNCDIB@MM?1dd?1yy?$AA@ 000000018002d9e0     libucrt:nlsdata.obj
 0002:000019f0       ??_C@_0BE@CKGJFCPC@dddd?0?5MMMM?5dd?0?5yyyy?$AA@ 000000018002d9f0     libucrt:nlsdata.obj
 0002:00001a08       ??_C@_08JCCMCCIL@HH?3mm?3ss?$AA@ 000000018002da08     libucrt:nlsdata.obj
 0002:00001a18       ??_C@_17MBGCMIPB@?$AAS?$AAu?$AAn?$AA?$AA@ 000000018002da18     libucrt:nlsdata.obj
 0002:00001a20       ??_C@_17KBOMKBF@?$AAM?$AAo?$AAn?$AA?$AA@ 000000018002da20     libucrt:nlsdata.obj
 0002:00001a28       ??_C@_17BMKGEGOJ@?$AAT?$AAu?$AAe?$AA?$AA@ 000000018002da28     libucrt:nlsdata.obj
 0002:00001a30       ??_C@_17CJEDCEPE@?$AAW?$AAe?$AAd?$AA?$AA@ 000000018002da30     libucrt:nlsdata.obj
 0002:00001a38       ??_C@_17PDPHAADD@?$AAT?$AAh?$AAu?$AA?$AA@ 000000018002da38     libucrt:nlsdata.obj
 0002:00001a40       ??_C@_17HFOLPPLP@?$AAF?$AAr?$AAi?$AA?$AA@ 000000018002da40     libucrt:nlsdata.obj
 0002:00001a48       ??_C@_17GGIBDPIH@?$AAS?$AAa?$AAt?$AA?$AA@ 000000018002da48     libucrt:nlsdata.obj
 0002:00001a50       ??_C@_1O@IHNHDHPB@?$AAS?$AAu?$AAn?$AAd?$AAa?$AAy?$AA?$AA@ 000000018002da50     libucrt:nlsdata.obj
 0002:00001a60       ??_C@_1O@MMNBFLIA@?$AAM?$AAo?$AAn?$AAd?$AAa?$AAy?$AA?$AA@ 000000018002da60     libucrt:nlsdata.obj
 0002:00001a70       ??_C@_1BA@ENFBFFEK@?$AAT?$AAu?$AAe?$AAs?$AAd?$AAa?$AAy?$AA?$AA@ 000000018002da70     libucrt:nlsdata.obj
 0002:00001a80       ??_C@_1BE@EBOGMDOH@?$AAW?$AAe?$AAd?$AAn?$AAe?$AAs?$AAd?$AAa?$AAy?$AA?$AA@ 000000018002da80     libucrt:nlsdata.obj
 0002:00001a98       ??_C@_1BC@HHMNLIHE@?$AAT?$AAh?$AAu?$AAr?$AAs?$AAd?$AAa?$AAy?$AA?$AA@ 000000018002da98     libucrt:nlsdata.obj
 0002:00001ab0       ??_C@_1O@PDICJHAG@?$AAF?$AAr?$AAi?$AAd?$AAa?$AAy?$AA?$AA@ 000000018002dab0     libucrt:nlsdata.obj
 0002:00001ac0       ??_C@_1BC@ENMNNPAJ@?$AAS?$AAa?$AAt?$AAu?$AAr?$AAd?$AAa?$AAy?$AA?$AA@ 000000018002dac0     libucrt:nlsdata.obj
 0002:00001ad8       ??_C@_17DKNBKCHM@?$AAJ?$AAa?$AAn?$AA?$AA@ 000000018002dad8     libucrt:nlsdata.obj
 0002:00001ae0       ??_C@_17LMDJEKJN@?$AAF?$AAe?$AAb?$AA?$AA@ 000000018002dae0     libucrt:nlsdata.obj
 0002:00001ae8       ??_C@_17CKNLEDEC@?$AAM?$AAa?$AAr?$AA?$AA@ 000000018002dae8     libucrt:nlsdata.obj
 0002:00001af0       ??_C@_17LFPOIHDD@?$AAA?$AAp?$AAr?$AA?$AA@ 000000018002daf0     libucrt:nlsdata.obj
 0002:00001af8       ??_C@_17PNNKMEED@?$AAM?$AAa?$AAy?$AA?$AA@ 000000018002daf8     libucrt:nlsdata.obj
 0002:00001b00       ??_C@_17KCJGOCPB@?$AAJ?$AAu?$AAn?$AA?$AA@ 000000018002db00     libucrt:nlsdata.obj
 0002:00001b08       ??_C@_17IJPCKHK@?$AAJ?$AAu?$AAl?$AA?$AA@ 000000018002db08     libucrt:nlsdata.obj
 0002:00001b10       ??_C@_17ICPELBCN@?$AAA?$AAu?$AAg?$AA?$AA@ 000000018002db10     libucrt:nlsdata.obj
 0002:00001b18       ??_C@_17HCHCOKMG@?$AAS?$AAe?$AAp?$AA?$AA@ 000000018002db18     libucrt:nlsdata.obj
 0002:00001b20       ??_C@_17FNLKOI@?$AAO?$AAc?$AAt?$AA?$AA@ 000000018002db20     libucrt:nlsdata.obj
 0002:00001b28       ??_C@_17BBDMLCIG@?$AAN?$AAo?$AAv?$AA?$AA@ 000000018002db28     libucrt:nlsdata.obj
 0002:00001b30       ??_C@_17EGKACKIF@?$AAD?$AAe?$AAc?$AA?$AA@ 000000018002db30     libucrt:nlsdata.obj
 0002:00001b38       ??_C@_1BA@EFMEIEBA@?$AAJ?$AAa?$AAn?$AAu?$AAa?$AAr?$AAy?$AA?$AA@ 000000018002db38     libucrt:nlsdata.obj
 0002:00001b48       ??_C@_1BC@JGDDFFAM@?$AAF?$AAe?$AAb?$AAr?$AAu?$AAa?$AAr?$AAy?$AA?$AA@ 000000018002db48     libucrt:nlsdata.obj
 0002:00001b60       ??_C@_1M@IKEENEDF@?$AAM?$AAa?$AAr?$AAc?$AAh?$AA?$AA@ 000000018002db60     libucrt:nlsdata.obj
 0002:00001b70       ??_C@_1M@GJNLMHFD@?$AAA?$AAp?$AAr?$AAi?$AAl?$AA?$AA@ 000000018002db70     libucrt:nlsdata.obj
 0002:00001b80       ??_C@_19EPFLPGAP@?$AAJ?$AAu?$AAn?$AAe?$AA?$AA@ 000000018002db80     libucrt:nlsdata.obj
 0002:00001b90       ??_C@_19BIFMLPCD@?$AAJ?$AAu?$AAl?$AAy?$AA?$AA@ 000000018002db90     libucrt:nlsdata.obj
 0002:00001ba0       ??_C@_1O@PAHLKOAC@?$AAA?$AAu?$AAg?$AAu?$AAs?$AAt?$AA?$AA@ 000000018002dba0     libucrt:nlsdata.obj
 0002:00001bb0       ??_C@_1BE@DKAAMBJL@?$AAS?$AAe?$AAp?$AAt?$AAe?$AAm?$AAb?$AAe?$AAr?$AA?$AA@ 000000018002dbb0     libucrt:nlsdata.obj
 0002:00001bc8       ??_C@_1BA@EPANDLNG@?$AAO?$AAc?$AAt?$AAo?$AAb?$AAe?$AAr?$AA?$AA@ 000000018002dbc8     libucrt:nlsdata.obj
 0002:00001bd8       ??_C@_1BC@BGLIFPF@?$AAN?$AAo?$AAv?$AAe?$AAm?$AAb?$AAe?$AAr?$AA?$AA@ 000000018002dbd8     libucrt:nlsdata.obj
 0002:00001bf0       ??_C@_1BC@FEMKIFH@?$AAD?$AAe?$AAc?$AAe?$AAm?$AAb?$AAe?$AAr?$AA?$AA@ 000000018002dbf0     libucrt:nlsdata.obj
 0002:00001c04       ??_C@_15ODEHAHHF@?$AAA?$AAM?$AA?$AA@ 000000018002dc04     libucrt:nlsdata.obj
 0002:00001c0c       ??_C@_15CLMNNGEL@?$AAP?$AAM?$AA?$AA@ 000000018002dc0c     libucrt:nlsdata.obj
 0002:00001c18       ??_C@_1BC@IEBCMHCM@?$AAM?$AAM?$AA?1?$AAd?$AAd?$AA?1?$AAy?$AAy?$AA?$AA@ 000000018002dc18     libucrt:nlsdata.obj
 0002:00001c30       ??_C@_1CI@KNAKOEBC@?$AAd?$AAd?$AAd?$AAd?$AA?0?$AA?5?$AAM?$AAM?$AAM?$AAM?$AA?5?$AAd?$AAd?$AA?0?$AA?5?$AAy?$AAy?$AAy?$AAy?$AA?$AA@ 000000018002dc30     libucrt:nlsdata.obj
 0002:00001c58       ??_C@_1BC@GDGBMEMK@?$AAH?$AAH?$AA?3?$AAm?$AAm?$AA?3?$AAs?$AAs?$AA?$AA@ 000000018002dc58     libucrt:nlsdata.obj
 0002:00001c70       ??_C@_1M@BMHNFIME@?$AAe?$AAn?$AA?9?$AAU?$AAS?$AA?$AA@ 000000018002dc70     libucrt:nlsdata.obj
 0002:00001ca0       ??_C@_1M@HPNHIDJI@?$AAj?$AAa?$AA?9?$AAJ?$AAP?$AA?$AA@ 000000018002dca0     libucrt:mbctype.obj
 0002:00001cb0       ??_C@_1M@BIBDDEMK@?$AAz?$AAh?$AA?9?$AAC?$AAN?$AA?$AA@ 000000018002dcb0     libucrt:mbctype.obj
 0002:00001cc0       ??_C@_1M@JLOOOEGK@?$AAk?$AAo?$AA?9?$AAK?$AAR?$AA?$AA@ 000000018002dcc0     libucrt:mbctype.obj
 0002:00001cd0       ??_C@_1M@CLNBBOPM@?$AAz?$AAh?$AA?9?$AAT?$AAW?$AA?$AA@ 000000018002dcd0     libucrt:mbctype.obj
 0002:00001d80       ??_C@_1EA@JGEFHKEI@?$AAa?$AAp?$AAi?$AA?9?$AAm?$AAs?$AA?9?$AAw?$AAi?$AAn?$AA?9?$AAc?$AAo?$AAr?$AAe?$AA?9?$AAd?$AAa?$AAt?$AAe?$AAt?$AAi?$AAm?$AAe?$AA?9?$AAl?$AA1?$AA?9?$AA1?$AA?9?$AA1?$AA?$AA@ 000000018002dd80     libucrt:winapi_thunks.obj
 0002:00001dc0       ??_C@_1DM@KHCHBNEB@?$AAa?$AAp?$AAi?$AA?9?$AAm?$AAs?$AA?9?$AAw?$AAi?$AAn?$AA?9?$AAc?$AAo?$AAr?$AAe?$AA?9?$AAf?$AAi?$AAb?$AAe?$AAr?$AAs?$AA?9?$AAl?$AA1?$AA?9?$AA1?$AA?9?$AA1?$AA?$AA@ 000000018002ddc0     libucrt:winapi_thunks.obj
 0002:00001e00       ??_C@_1DI@IJCEHOCB@?$AAa?$AAp?$AAi?$AA?9?$AAm?$AAs?$AA?9?$AAw?$AAi?$AAn?$AA?9?$AAc?$AAo?$AAr?$AAe?$AA?9?$AAf?$AAi?$AAl?$AAe?$AA?9?$AAl?$AA1?$AA?9?$AA2?$AA?9?$AA2?$AA?$AA@ 000000018002de00     libucrt:winapi_thunks.obj
 0002:00001e40       ??_C@_1EI@MPIAOHOC@?$AAa?$AAp?$AAi?$AA?9?$AAm?$AAs?$AA?9?$AAw?$AAi?$AAn?$AA?9?$AAc?$AAo?$AAr?$AAe?$AA?9?$AAl?$AAo?$AAc?$AAa?$AAl?$AAi?$AAz?$AAa?$AAt?$AAi?$AAo?$AAn?$AA?9?$AAl?$AA1?$AA?9@ 000000018002de40     libucrt:winapi_thunks.obj
 0002:00001e90       ??_C@_1FK@FPHCKFIE@?$AAa?$AAp?$AAi?$AA?9?$AAm?$AAs?$AA?9?$AAw?$AAi?$AAn?$AA?9?$AAc?$AAo?$AAr?$AAe?$AA?9?$AAl?$AAo?$AAc?$AAa?$AAl?$AAi?$AAz?$AAa?$AAt?$AAi?$AAo?$AAn?$AA?9?$AAo?$AAb?$AAs@ 000000018002de90     libucrt:winapi_thunks.obj
 0002:00001ef0       ??_C@_1EM@DILCGIIO@?$AAa?$AAp?$AAi?$AA?9?$AAm?$AAs?$AA?9?$AAw?$AAi?$AAn?$AA?9?$AAc?$AAo?$AAr?$AAe?$AA?9?$AAp?$AAr?$AAo?$AAc?$AAe?$AAs?$AAs?$AAt?$AAh?$AAr?$AAe?$AAa?$AAd?$AAs?$AA?9?$AAl@ 000000018002def0     libucrt:winapi_thunks.obj
 0002:00001f40       ??_C@_1DM@LNCGDDPN@?$AAa?$AAp?$AAi?$AA?9?$AAm?$AAs?$AA?9?$AAw?$AAi?$AAn?$AA?9?$AAc?$AAo?$AAr?$AAe?$AA?9?$AAs?$AAt?$AAr?$AAi?$AAn?$AAg?$AA?9?$AAl?$AA1?$AA?9?$AA1?$AA?9?$AA0?$AA?$AA@ 000000018002df40     libucrt:winapi_thunks.obj
 0002:00001f80       ??_C@_1DK@LPPGFMPP@?$AAa?$AAp?$AAi?$AA?9?$AAm?$AAs?$AA?9?$AAw?$AAi?$AAn?$AA?9?$AAc?$AAo?$AAr?$AAe?$AA?9?$AAs?$AAy?$AAn?$AAc?$AAh?$AA?9?$AAl?$AA1?$AA?9?$AA2?$AA?9?$AA0?$AA?$AA@ 000000018002df80     libucrt:winapi_thunks.obj
 0002:00001fc0       ??_C@_1DO@FPAPJEMD@?$AAa?$AAp?$AAi?$AA?9?$AAm?$AAs?$AA?9?$AAw?$AAi?$AAn?$AA?9?$AAc?$AAo?$AAr?$AAe?$AA?9?$AAs?$AAy?$AAs?$AAi?$AAn?$AAf?$AAo?$AA?9?$AAl?$AA1?$AA?9?$AA2?$AA?9?$AA1?$AA?$AA@ 000000018002dfc0     libucrt:winapi_thunks.obj
 0002:00002000       ??_C@_1DK@NDHNAHIO@?$AAa?$AAp?$AAi?$AA?9?$AAm?$AAs?$AA?9?$AAw?$AAi?$AAn?$AA?9?$AAc?$AAo?$AAr?$AAe?$AA?9?$AAw?$AAi?$AAn?$AAr?$AAt?$AA?9?$AAl?$AA1?$AA?9?$AA1?$AA?9?$AA0?$AA?$AA@ 000000018002e000     libucrt:winapi_thunks.obj
 0002:00002040       ??_C@_1DM@KGHDGBCM@?$AAa?$AAp?$AAi?$AA?9?$AAm?$AAs?$AA?9?$AAw?$AAi?$AAn?$AA?9?$AAc?$AAo?$AAr?$AAe?$AA?9?$AAx?$AAs?$AAt?$AAa?$AAt?$AAe?$AA?9?$AAl?$AA2?$AA?9?$AA1?$AA?9?$AA0?$AA?$AA@ 000000018002e040     libucrt:winapi_thunks.obj
 0002:00002080       ??_C@_1EO@IJIOEFOH@?$AAa?$AAp?$AAi?$AA?9?$AAm?$AAs?$AA?9?$AAw?$AAi?$AAn?$AA?9?$AAr?$AAt?$AAc?$AAo?$AAr?$AAe?$AA?9?$AAn?$AAt?$AAu?$AAs?$AAe?$AAr?$AA?9?$AAw?$AAi?$AAn?$AAd?$AAo?$AAw?$AA?9@ 000000018002e080     libucrt:winapi_thunks.obj
 0002:000020d0       ??_C@_1FG@HHGEKANL@?$AAa?$AAp?$AAi?$AA?9?$AAm?$AAs?$AA?9?$AAw?$AAi?$AAn?$AA?9?$AAs?$AAe?$AAc?$AAu?$AAr?$AAi?$AAt?$AAy?$AA?9?$AAs?$AAy?$AAs?$AAt?$AAe?$AAm?$AAf?$AAu?$AAn?$AAc?$AAt?$AAi@ 000000018002e0d0     libucrt:winapi_thunks.obj
 0002:00002130       ??_C@_1EG@DBIOJECG@?$AAe?$AAx?$AAt?$AA?9?$AAm?$AAs?$AA?9?$AAw?$AAi?$AAn?$AA?9?$AAn?$AAt?$AAu?$AAs?$AAe?$AAr?$AA?9?$AAd?$AAi?$AAa?$AAl?$AAo?$AAg?$AAb?$AAo?$AAx?$AA?9?$AAl?$AA1?$AA?9?$AA1@ 000000018002e130     libucrt:winapi_thunks.obj
 0002:00002180       ??_C@_1EO@FIHMJCLF@?$AAe?$AAx?$AAt?$AA?9?$AAm?$AAs?$AA?9?$AAw?$AAi?$AAn?$AA?9?$AAn?$AAt?$AAu?$AAs?$AAe?$AAr?$AA?9?$AAw?$AAi?$AAn?$AAd?$AAo?$AAw?$AAs?$AAt?$AAa?$AAt?$AAi?$AAo?$AAn?$AA?9@ 000000018002e180     libucrt:winapi_thunks.obj
 0002:000021d0       ??_C@_1BC@DNHGCMLG@?$AAa?$AAd?$AAv?$AAa?$AAp?$AAi?$AA3?$AA2?$AA?$AA@ 000000018002e1d0     libucrt:winapi_thunks.obj
 0002:000021e8       ??_C@_1BC@GDMECMAK@?$AAk?$AAe?$AAr?$AAn?$AAe?$AAl?$AA3?$AA2?$AA?$AA@ 000000018002e1e8     libucrt:winapi_thunks.obj
 0002:00002200       ??_C@_1M@OAIMIKLP@?$AAn?$AAt?$AAd?$AAl?$AAl?$AA?$AA@ 000000018002e200     libucrt:winapi_thunks.obj
 0002:00002210       ??_C@_1EG@DPGNFKGC@?$AAa?$AAp?$AAi?$AA?9?$AAm?$AAs?$AA?9?$AAw?$AAi?$AAn?$AA?9?$AAa?$AAp?$AAp?$AAm?$AAo?$AAd?$AAe?$AAl?$AA?9?$AAr?$AAu?$AAn?$AAt?$AAi?$AAm?$AAe?$AA?9?$AAl?$AA1?$AA?9?$AA1@ 000000018002e210     libucrt:winapi_thunks.obj
 0002:00002258       ??_C@_1O@BCCLBEOE@?$AAu?$AAs?$AAe?$AAr?$AA3?$AA2?$AA?$AA@ 000000018002e258     libucrt:winapi_thunks.obj
 0002:00002268       ??_C@_1BA@PFFKHIOG@?$AAa?$AAp?$AAi?$AA?9?$AAm?$AAs?$AA?9?$AA?$AA@ 000000018002e268     libucrt:winapi_thunks.obj
 0002:00002278       ??_C@_1BA@IAIFMGEF@?$AAe?$AAx?$AAt?$AA?9?$AAm?$AAs?$AA?9?$AA?$AA@ 000000018002e278     libucrt:winapi_thunks.obj
 0002:00002290       ??_C@_0BA@FHFNEAED@AreFileApisANSI?$AA@ 000000018002e290     libucrt:winapi_thunks.obj
 0002:000022a8       ??_C@_08KNHFBNJ@FlsAlloc?$AA@ 000000018002e2a8     libucrt:winapi_thunks.obj
 0002:000022c0       ??_C@_07PEJMOBNF@FlsFree?$AA@ 000000018002e2c0     libucrt:winapi_thunks.obj
 0002:000022d0       ??_C@_0M@GDNOONDI@FlsGetValue?$AA@ 000000018002e2d0     libucrt:winapi_thunks.obj
 0002:000022e8       ??_C@_0M@JCPCPOEF@FlsSetValue?$AA@ 000000018002e2e8     libucrt:winapi_thunks.obj
 0002:00002300       ??_C@_0BA@HNOPNCHB@GetActiveWindow?$AA@ 000000018002e300     libucrt:winapi_thunks.obj
 0002:00002318       ??_C@_0BD@HHGDFDBJ@GetLastActivePopup?$AA@ 000000018002e318     libucrt:winapi_thunks.obj
 0002:00002338       ??_C@_0BI@DFKBFLJE@GetProcessWindowStation?$AA@ 000000018002e338     libucrt:winapi_thunks.obj
 0002:00002358       ??_C@_0BK@DEKFELLI@GetUserObjectInformationW?$AA@ 000000018002e358     libucrt:winapi_thunks.obj
 0002:00002380       ??_C@_0BM@HCFOFFN@InitializeCriticalSectionEx?$AA@ 000000018002e380     libucrt:winapi_thunks.obj
 0002:000023a8       ??_C@_0O@KKBNKAPF@LCMapStringEx?$AA@ 000000018002e3a8     libucrt:winapi_thunks.obj
 0002:000023c0       ??_C@_0BB@HBDEELFH@LocaleNameToLCID?$AA@ 000000018002e3c0     libucrt:winapi_thunks.obj
 0002:000023e0       ??_C@_0M@CHKKJDAI@MessageBoxA?$AA@ 000000018002e3e0     libucrt:winapi_thunks.obj
 0002:000023f8       ??_C@_0M@DLDCCGNP@MessageBoxW?$AA@ 000000018002e3f8     libucrt:winapi_thunks.obj
 0002:00002408       ??_C@_0CF@OJOFEIGO@AppPolicyGetProcessTerminationMe@ 000000018002e408     libucrt:winapi_thunks.obj
 0002:00002438       ??_C@_0CE@OICFMIKE@AppPolicyGetShowDeveloperDiagnos@ 000000018002e438     libucrt:winapi_thunks.obj
 0002:00002460       ??_C@_0BL@ODDJNEDA@AppPolicyGetWindowingModel?$AA@ 000000018002e460     libucrt:winapi_thunks.obj
 0002:0000247c       ??_C@_03OEIAHPBN@INF?$AA@  000000018002e47c     libucrt:cvt.obj
 0002:00002480       ??_C@_03OJHLLCGB@inf?$AA@  000000018002e480     libucrt:cvt.obj
 0002:00002484       ??_C@_03LKNCIKJB@NAN?$AA@  000000018002e484     libucrt:cvt.obj
 0002:00002488       ??_C@_03LHCJEHON@nan?$AA@  000000018002e488     libucrt:cvt.obj
 0002:00002490       ??_C@_09OFJJIMPC@NAN?$CISNAN?$CJ?$AA@ 000000018002e490     libucrt:cvt.obj
 0002:000024a0       ??_C@_09IPFBKMDL@nan?$CIsnan?$CJ?$AA@ 000000018002e4a0     libucrt:cvt.obj
 0002:000024b0       ??_C@_08IKHNHAJ@NAN?$CIIND?$CJ?$AA@ 000000018002e4b0     libucrt:cvt.obj
 0002:000024c0       ??_C@_08OFCDMILK@nan?$CIind?$CJ?$AA@ 000000018002e4c0     libucrt:cvt.obj
 0002:000024cc       ??_C@_05KLBDPFGC@e?$CL000?$AA@ 000000018002e4cc     libucrt:cvt.obj
 0002:000024e0       __newctype                 000000018002e4e0     libucrt:ctype.obj
 0002:000027e0       __newclmap                 000000018002e7e0     libucrt:ctype.obj
 0002:00002960       __newcumap                 000000018002e960     libucrt:ctype.obj
 0002:00002ae0       _wctype                    000000018002eae0     libucrt:ctype.obj
 0002:00002ce4       ??_C@_15PJPFLCCM@?$AAu?$AAk?$AA?$AA@ 000000018002ece4     libucrt:get_qualified_locale.obj
 0002:00003b30       ??_C@_15EMKDOKLE@?$AAa?$AAr?$AA?$AA@ 000000018002fb30     libucrt:lcidtoname_downlevel.obj
 0002:00003b38       ??_C@_15KNPADPLH@?$AAb?$AAg?$AA?$AA@ 000000018002fb38     libucrt:lcidtoname_downlevel.obj
 0002:00003b40       ??_C@_15EDMHLDMO@?$AAc?$AAa?$AA?$AA@ 000000018002fb40     libucrt:lcidtoname_downlevel.obj
 0002:00003b48       ??_C@_1O@BPEAJADD@?$AAz?$AAh?$AA?9?$AAC?$AAH?$AAS?$AA?$AA@ 000000018002fb48     libucrt:lcidtoname_downlevel.obj
 0002:00003b58       ??_C@_15LJNHCMNK@?$AAc?$AAs?$AA?$AA@ 000000018002fb58     libucrt:lcidtoname_downlevel.obj
 0002:00003b60       ??_C@_15FOMCIDHG@?$AAd?$AAa?$AA?$AA@ 000000018002fb60     libucrt:lcidtoname_downlevel.obj
 0002:00003b68       ??_C@_15NBKABECB@?$AAd?$AAe?$AA?$AA@ 000000018002fb68     libucrt:lcidtoname_downlevel.obj
 0002:00003b70       ??_C@_15GHPEIIAO@?$AAe?$AAl?$AA?$AA@ 000000018002fb70     libucrt:lcidtoname_downlevel.obj
 0002:00003b78       ??_C@_15MNPNEAIF@?$AAe?$AAn?$AA?$AA@ 000000018002fb78     libucrt:lcidtoname_downlevel.obj
 0002:00003b80       ??_C@_15GPIOMPMH@?$AAe?$AAs?$AA?$AA@ 000000018002fb80     libucrt:lcidtoname_downlevel.obj
 0002:00003b88       ??_C@_15NGLOAKJC@?$AAf?$AAi?$AA?$AA@ 000000018002fb88     libucrt:lcidtoname_downlevel.obj
 0002:00003b90       ??_C@_15FBKGNKAM@?$AAf?$AAr?$AA?$AA@ 000000018002fb90     libucrt:lcidtoname_downlevel.obj
 0002:00003b98       ??_C@_15KGGCNEFK@?$AAh?$AAe?$AA?$AA@ 000000018002fb98     libucrt:lcidtoname_downlevel.obj
 0002:00003ba0       ??_C@_15PGHLIDMF@?$AAh?$AAu?$AA?$AA@ 000000018002fba0     libucrt:lcidtoname_downlevel.obj
 0002:00003ba8       ??_C@_15BIEMAPLM@?$AAi?$AAs?$AA?$AA@ 000000018002fba8     libucrt:lcidtoname_downlevel.obj
 0002:00003bb0       ??_C@_15IFJLDHAF@?$AAi?$AAt?$AA?$AA@ 000000018002fbb0     libucrt:lcidtoname_downlevel.obj
 0002:00003bb8       ??_C@_15GEMIOCAG@?$AAj?$AAa?$AA?$AA@ 000000018002fbb8     libucrt:lcidtoname_downlevel.obj
 0002:00003bc0       ??_C@_15EPELEGJA@?$AAk?$AAo?$AA?$AA@ 000000018002fbc0     libucrt:lcidtoname_downlevel.obj
 0002:00003bc8       ??_C@_15NDDHIMN@?$AAn?$AAl?$AA?$AA@ 000000018002fbc8     libucrt:lcidtoname_downlevel.obj
 0002:00003bd0       ??_C@_15BPIGNHCD@?$AAn?$AAo?$AA?$AA@ 000000018002fbd0     libucrt:lcidtoname_downlevel.obj
 0002:00003bd8       ??_C@_15DEOPBLCG@?$AAp?$AAl?$AA?$AA@ 000000018002fbd8     libucrt:lcidtoname_downlevel.obj
 0002:00003be0       ??_C@_15KBECGEFG@?$AAp?$AAt?$AA?$AA@ 000000018002fbe0     libucrt:lcidtoname_downlevel.obj
 0002:00003be8       ??_C@_15GLJCBFMD@?$AAr?$AAo?$AA?$AA@ 000000018002fbe8     libucrt:lcidtoname_downlevel.obj
 0002:00003bf0       ??_C@_15FEDGKCDI@?$AAr?$AAu?$AA?$AA@ 000000018002fbf0     libucrt:lcidtoname_downlevel.obj
 0002:00003bf8       ??_C@_15GLKMLLHM@?$AAh?$AAr?$AA?$AA@ 000000018002fbf8     libucrt:lcidtoname_downlevel.obj
 0002:00003c00       ??_C@_15CPKMFBDB@?$AAs?$AAk?$AA?$AA@ 000000018002fc00     libucrt:lcidtoname_downlevel.obj
 0002:00003c08       ??_C@_15BAAIOGMK@?$AAs?$AAq?$AA?$AA@ 000000018002fc08     libucrt:lcidtoname_downlevel.obj
 0002:00003c10       ??_C@_15INNPNOHD@?$AAs?$AAv?$AA?$AA@ 000000018002fc10     libucrt:lcidtoname_downlevel.obj
 0002:00003c18       ??_C@_15CABMMOGH@?$AAt?$AAh?$AA?$AA@ 000000018002fc18     libucrt:lcidtoname_downlevel.obj
 0002:00003c20       ??_C@_15BPLIHJJM@?$AAt?$AAr?$AA?$AA@ 000000018002fc20     libucrt:lcidtoname_downlevel.obj
 0002:00003c28       ??_C@_15NEOEKKDJ@?$AAu?$AAr?$AA?$AA@ 000000018002fc28     libucrt:lcidtoname_downlevel.obj
 0002:00003c30       ??_C@_15NFICGAJK@?$AAi?$AAd?$AA?$AA@ 000000018002fc30     libucrt:lcidtoname_downlevel.obj
 0002:00003c38       ??_C@_15HPJPHDM@?$AAb?$AAe?$AA?$AA@ 000000018002fc38     libucrt:lcidtoname_downlevel.obj
 0002:00003c40       ??_C@_15LCHLGJII@?$AAs?$AAl?$AA?$AA@ 000000018002fc40     libucrt:lcidtoname_downlevel.obj
 0002:00003c48       ??_C@_15PCFJPHHO@?$AAe?$AAt?$AA?$AA@ 000000018002fc48     libucrt:lcidtoname_downlevel.obj
 0002:00003c50       ??_C@_15HPFPGODN@?$AAl?$AAv?$AA?$AA@ 000000018002fc50     libucrt:lcidtoname_downlevel.obj
 0002:00003c58       ??_C@_15NFFGKGLG@?$AAl?$AAt?$AA?$AA@ 000000018002fc58     libucrt:lcidtoname_downlevel.obj
 0002:00003c60       ??_C@_15BDAKCCHN@?$AAf?$AAa?$AA?$AA@ 000000018002fc60     libucrt:lcidtoname_downlevel.obj
 0002:00003c68       ??_C@_15NFGIAIAJ@?$AAv?$AAi?$AA?$AA@ 000000018002fc68     libucrt:lcidtoname_downlevel.obj
 0002:00003c70       ??_C@_15LMKNDMHN@?$AAh?$AAy?$AA?$AA@ 000000018002fc70     libucrt:lcidtoname_downlevel.obj
 0002:00003c78       ??_C@_15IJBHMCFL@?$AAa?$AAz?$AA?$AA@ 000000018002fc78     libucrt:lcidtoname_downlevel.obj
 0002:00003c80       ??_C@_15EKOFJABL@?$AAe?$AAu?$AA?$AA@ 000000018002fc80     libucrt:lcidtoname_downlevel.obj
 0002:00003c88       ??_C@_15BGHADCNK@?$AAm?$AAk?$AA?$AA@ 000000018002fc88     libucrt:lcidtoname_downlevel.obj
 0002:00003c90       ??_C@_15JDNICKHM@?$AAa?$AAf?$AA?$AA@ 000000018002fc90     libucrt:lcidtoname_downlevel.obj
 0002:00003c98       ??_C@_15KPJEDBKD@?$AAk?$AAa?$AA?$AA@ 000000018002fc98     libucrt:lcidtoname_downlevel.obj
 0002:00003ca0       ??_C@_15PDNFFFEO@?$AAf?$AAo?$AA?$AA@ 000000018002fca0     libucrt:lcidtoname_downlevel.obj
 0002:00003ca8       ??_C@_15OMLEGLOC@?$AAh?$AAi?$AA?$AA@ 000000018002fca8     libucrt:lcidtoname_downlevel.obj
 0002:00003cb0       ??_C@_15IDNNENKK@?$AAm?$AAs?$AA?$AA@ 000000018002fcb0     libucrt:lcidtoname_downlevel.obj
 0002:00003cb8       ??_C@_15MACJNBMH@?$AAk?$AAk?$AA?$AA@ 000000018002fcb8     libucrt:lcidtoname_downlevel.obj
 0002:00003cc0       ??_C@_15DKDJEOND@?$AAk?$AAy?$AA?$AA@ 000000018002fcc0     libucrt:lcidtoname_downlevel.obj
 0002:00003cc8       ??_C@_15DFGDLJBG@?$AAs?$AAw?$AA?$AA@ 000000018002fcc8     libucrt:lcidtoname_downlevel.obj
 0002:00003cd0       ??_C@_15BBFAICNG@?$AAu?$AAz?$AA?$AA@ 000000018002fcd0     libucrt:lcidtoname_downlevel.obj
 0002:00003cd8       ??_C@_15DKNDCGEA@?$AAt?$AAt?$AA?$AA@ 000000018002fcd8     libucrt:lcidtoname_downlevel.obj
 0002:00003ce0       ??_C@_15MGIFMDPL@?$AAp?$AAa?$AA?$AA@ 000000018002fce0     libucrt:lcidtoname_downlevel.obj
 0002:00003ce8       ??_C@_15HCNDBBA@?$AAg?$AAu?$AA?$AA@ 000000018002fce8     libucrt:lcidtoname_downlevel.obj
 0002:00003cf0       ??_C@_15FNBEIBON@?$AAt?$AAa?$AA?$AA@ 000000018002fcf0     libucrt:lcidtoname_downlevel.obj
 0002:00003cf8       ??_C@_15NCHGBGLK@?$AAt?$AAe?$AA?$AA@ 000000018002fcf8     libucrt:lcidtoname_downlevel.obj
 0002:00003d00       ??_C@_15PHPHCBPF@?$AAk?$AAn?$AA?$AA@ 000000018002fd00     libucrt:lcidtoname_downlevel.obj
 0002:00003d08       ??_C@_15DLGBCKMP@?$AAm?$AAr?$AA?$AA@ 000000018002fd08     libucrt:lcidtoname_downlevel.obj
 0002:00003d10       ??_C@_15EABBLBFF@?$AAs?$AAa?$AA?$AA@ 000000018002fd10     libucrt:lcidtoname_downlevel.obj
 0002:00003d18       ??_C@_15CBKOMCOI@?$AAm?$AAn?$AA?$AA@ 000000018002fd18     libucrt:lcidtoname_downlevel.obj
 0002:00003d20       ??_C@_15CKDMCJAF@?$AAg?$AAl?$AA?$AA@ 000000018002fd20     libucrt:lcidtoname_downlevel.obj
 0002:00003d28       ??_C@_17CNJFBPG@?$AAk?$AAo?$AAk?$AA?$AA@ 000000018002fd28     libucrt:lcidtoname_downlevel.obj
 0002:00003d30       ??_C@_17FFBJICPL@?$AAs?$AAy?$AAr?$AA?$AA@ 000000018002fd30     libucrt:lcidtoname_downlevel.obj
 0002:00003d38       ??_C@_17KPNDCPAF@?$AAd?$AAi?$AAv?$AA?$AA@ 000000018002fd38     libucrt:lcidtoname_downlevel.obj
 0002:00003d40       ??_C@_11LOCGONAA@?$AA?$AA@ 000000018002fd40     libucrt:lcidtoname_downlevel.obj
 0002:00003d48       ??_C@_1M@OKAHONE@?$AAa?$AAr?$AA?9?$AAS?$AAA?$AA?$AA@ 000000018002fd48     libucrt:lcidtoname_downlevel.obj
 0002:00003d58       ??_C@_1M@FFFIGIGK@?$AAb?$AAg?$AA?9?$AAB?$AAG?$AA?$AA@ 000000018002fd58     libucrt:lcidtoname_downlevel.obj
 0002:00003d68       ??_C@_1M@BJNKEDC@?$AAc?$AAa?$AA?9?$AAE?$AAS?$AA?$AA@ 000000018002fd68     libucrt:lcidtoname_downlevel.obj
 0002:00003d78       ??_C@_1M@IJJHFJHA@?$AAc?$AAs?$AA?9?$AAC?$AAZ?$AA?$AA@ 000000018002fd78     libucrt:lcidtoname_downlevel.obj
 0002:00003d88       ??_C@_1M@CLPEOBGI@?$AAd?$AAa?$AA?9?$AAD?$AAK?$AA?$AA@ 000000018002fd88     libucrt:lcidtoname_downlevel.obj
 0002:00003d98       ??_C@_1M@MCMADGCB@?$AAd?$AAe?$AA?9?$AAD?$AAE?$AA?$AA@ 000000018002fd98     libucrt:lcidtoname_downlevel.obj
 0002:00003da8       ??_C@_1M@OOCKEMAM@?$AAe?$AAl?$AA?9?$AAG?$AAR?$AA?$AA@ 000000018002fda8     libucrt:lcidtoname_downlevel.obj
 0002:00003db8       ??_C@_1M@DDNJFGID@?$AAf?$AAi?$AA?9?$AAF?$AAI?$AA?$AA@ 000000018002fdb8     libucrt:lcidtoname_downlevel.obj
 0002:00003dc8       ??_C@_1M@GLIPPMAC@?$AAf?$AAr?$AA?9?$AAF?$AAR?$AA?$AA@ 000000018002fdc8     libucrt:lcidtoname_downlevel.obj
 0002:00003dd8       ??_C@_1M@GFMCHPE@?$AAh?$AAe?$AA?9?$AAI?$AAL?$AA?$AA@ 000000018002fdd8     libucrt:lcidtoname_downlevel.obj
 0002:00003de8       ??_C@_1M@MHLPGNKM@?$AAh?$AAu?$AA?9?$AAH?$AAU?$AA?$AA@ 000000018002fde8     libucrt:lcidtoname_downlevel.obj
 0002:00003df8       ??_C@_1M@LPDDNNPN@?$AAi?$AAs?$AA?9?$AAI?$AAS?$AA?$AA@ 000000018002fdf8     libucrt:lcidtoname_downlevel.obj
 0002:00003e08       ??_C@_1M@MADIPODN@?$AAi?$AAt?$AA?9?$AAI?$AAT?$AA?$AA@ 000000018002fe08     libucrt:lcidtoname_downlevel.obj
 0002:00003e18       ??_C@_1M@IHBJJGG@?$AAn?$AAl?$AA?9?$AAN?$AAL?$AA?$AA@ 000000018002fe18     libucrt:lcidtoname_downlevel.obj
 0002:00003e28       ??_C@_1M@EANAGDL@?$AAn?$AAb?$AA?9?$AAN?$AAO?$AA?$AA@ 000000018002fe28     libucrt:lcidtoname_downlevel.obj
 0002:00003e38       ??_C@_1M@NEIEMEGP@?$AAp?$AAl?$AA?9?$AAP?$AAL?$AA?$AA@ 000000018002fe38     libucrt:lcidtoname_downlevel.obj
 0002:00003e48       ??_C@_1M@BOCFIGEP@?$AAp?$AAt?$AA?9?$AAB?$AAR?$AA?$AA@ 000000018002fe48     libucrt:lcidtoname_downlevel.obj
 0002:00003e58       ??_C@_1M@IMPFOPBG@?$AAr?$AAo?$AA?9?$AAR?$AAO?$AA?$AA@ 000000018002fe58     libucrt:lcidtoname_downlevel.obj
 0002:00003e68       ??_C@_1M@IDNNEJMM@?$AAr?$AAu?$AA?9?$AAR?$AAU?$AA?$AA@ 000000018002fe68     libucrt:lcidtoname_downlevel.obj
 0002:00003e78       ??_C@_1M@LILEEOGM@?$AAh?$AAr?$AA?9?$AAH?$AAR?$AA?$AA@ 000000018002fe78     libucrt:lcidtoname_downlevel.obj
 0002:00003e88       ??_C@_1M@FKIFEHPB@?$AAs?$AAk?$AA?9?$AAS?$AAK?$AA?$AA@ 000000018002fe88     libucrt:lcidtoname_downlevel.obj
 0002:00003e98       ??_C@_1M@LJMAMNPJ@?$AAs?$AAq?$AA?9?$AAA?$AAL?$AA?$AA@ 000000018002fe98     libucrt:lcidtoname_downlevel.obj
 0002:00003ea8       ??_C@_1M@GIAKDKJK@?$AAs?$AAv?$AA?9?$AAS?$AAE?$AA?$AA@ 000000018002fea8     libucrt:lcidtoname_downlevel.obj
 0002:00003eb8       ??_C@_1M@MKJKIKCL@?$AAt?$AAh?$AA?9?$AAT?$AAH?$AA?$AA@ 000000018002feb8     libucrt:lcidtoname_downlevel.obj
 0002:00003ec8       ??_C@_1M@MFLCCMPB@?$AAt?$AAr?$AA?9?$AAT?$AAR?$AA?$AA@ 000000018002fec8     libucrt:lcidtoname_downlevel.obj
 0002:00003ed8       ??_C@_1M@OIJHDKJN@?$AAu?$AAr?$AA?9?$AAP?$AAK?$AA?$AA@ 000000018002fed8     libucrt:lcidtoname_downlevel.obj
 0002:00003ee8       ??_C@_1M@LHIPCIEK@?$AAi?$AAd?$AA?9?$AAI?$AAD?$AA?$AA@ 000000018002fee8     libucrt:lcidtoname_downlevel.obj
 0002:00003ef8       ??_C@_1M@MFMOBGI@?$AAu?$AAk?$AA?9?$AAU?$AAA?$AA?$AA@ 000000018002fef8     libucrt:lcidtoname_downlevel.obj
 0002:00003f08       ??_C@_1M@OBGLJIPL@?$AAb?$AAe?$AA?9?$AAB?$AAY?$AA?$AA@ 000000018002ff08     libucrt:lcidtoname_downlevel.obj
 0002:00003f18       ??_C@_1M@BCFAJEAD@?$AAs?$AAl?$AA?9?$AAS?$AAI?$AA?$AA@ 000000018002ff18     libucrt:lcidtoname_downlevel.obj
 0002:00003f28       ??_C@_1M@FKFFEDDN@?$AAe?$AAt?$AA?9?$AAE?$AAE?$AA?$AA@ 000000018002ff28     libucrt:lcidtoname_downlevel.obj
 0002:00003f38       ??_C@_1M@KGKKAACI@?$AAl?$AAv?$AA?9?$AAL?$AAV?$AA?$AA@ 000000018002ff38     libucrt:lcidtoname_downlevel.obj
 0002:00003f48       ??_C@_1M@IFGBIJO@?$AAl?$AAt?$AA?9?$AAL?$AAT?$AA?$AA@ 000000018002ff48     libucrt:lcidtoname_downlevel.obj
 0002:00003f58       ??_C@_1M@FGEAHEDM@?$AAf?$AAa?$AA?9?$AAI?$AAR?$AA?$AA@ 000000018002ff58     libucrt:lcidtoname_downlevel.obj
 0002:00003f68       ??_C@_1M@KBMAIBFN@?$AAv?$AAi?$AA?9?$AAV?$AAN?$AA?$AA@ 000000018002ff68     libucrt:lcidtoname_downlevel.obj
 0002:00003f78       ??_C@_1M@GPCBKDJK@?$AAh?$AAy?$AA?9?$AAA?$AAM?$AA?$AA@ 000000018002ff78     libucrt:lcidtoname_downlevel.obj
 0002:00003f88       ??_C@_1BG@BECMDDJB@?$AAa?$AAz?$AA?9?$AAA?$AAZ?$AA?9?$AAL?$AAa?$AAt?$AAn?$AA?$AA@ 000000018002ff88     libucrt:lcidtoname_downlevel.obj
 0002:00003fa0       ??_C@_1M@MAOFCAEA@?$AAe?$AAu?$AA?9?$AAE?$AAS?$AA?$AA@ 000000018002ffa0     libucrt:lcidtoname_downlevel.obj
 0002:00003fb0       ??_C@_1M@IGHABKPI@?$AAm?$AAk?$AA?9?$AAM?$AAK?$AA?$AA@ 000000018002ffb0     libucrt:lcidtoname_downlevel.obj
 0002:00003fc0       ??_C@_1M@IAIGNEJG@?$AAt?$AAn?$AA?9?$AAZ?$AAA?$AA?$AA@ 000000018002ffc0     libucrt:lcidtoname_downlevel.obj
 0002:00003fd0       ??_C@_1M@IIJCOJFA@?$AAx?$AAh?$AA?9?$AAZ?$AAA?$AA?$AA@ 000000018002ffd0     libucrt:lcidtoname_downlevel.obj
 0002:00003fe0       ??_C@_1M@LGPJHNJH@?$AAz?$AAu?$AA?9?$AAZ?$AAA?$AA?$AA@ 000000018002ffe0     libucrt:lcidtoname_downlevel.obj
 0002:00003ff0       ??_C@_1M@HOKAOIO@?$AAa?$AAf?$AA?9?$AAZ?$AAA?$AA?$AA@ 000000018002fff0     libucrt:lcidtoname_downlevel.obj
 0002:00004000       ??_C@_1M@DPCLHLIE@?$AAk?$AAa?$AA?9?$AAG?$AAE?$AA?$AA@ 0000000180030000     libucrt:lcidtoname_downlevel.obj
 0002:00004010       ??_C@_1M@BLKMHJBI@?$AAf?$AAo?$AA?9?$AAF?$AAO?$AA?$AA@ 0000000180030010     libucrt:lcidtoname_downlevel.obj
 0002:00004020       ??_C@_1M@LGGJAPPB@?$AAh?$AAi?$AA?9?$AAI?$AAN?$AA?$AA@ 0000000180030020     libucrt:lcidtoname_downlevel.obj
 0002:00004030       ??_C@_1M@FIKPIHFE@?$AAm?$AAt?$AA?9?$AAM?$AAT?$AA?$AA@ 0000000180030030     libucrt:lcidtoname_downlevel.obj
 0002:00004040       ??_C@_1M@HEGGPBFA@?$AAs?$AAe?$AA?9?$AAN?$AAO?$AA?$AA@ 0000000180030040     libucrt:lcidtoname_downlevel.obj
 0002:00004050       ??_C@_1M@EIBJEEPA@?$AAm?$AAs?$AA?9?$AAM?$AAY?$AA?$AA@ 0000000180030050     libucrt:lcidtoname_downlevel.obj
 0002:00004060       ??_C@_1M@FHLBGMPP@?$AAk?$AAk?$AA?9?$AAK?$AAZ?$AA?$AA@ 0000000180030060     libucrt:lcidtoname_downlevel.obj
 0002:00004070       ??_C@_1M@NGJJLCGI@?$AAk?$AAy?$AA?9?$AAK?$AAG?$AA?$AA@ 0000000180030070     libucrt:lcidtoname_downlevel.obj
 0002:00004080       ??_C@_1M@GIENNBFC@?$AAs?$AAw?$AA?9?$AAK?$AAE?$AA?$AA@ 0000000180030080     libucrt:lcidtoname_downlevel.obj
 0002:00004090       ??_C@_1BG@NDGMJIMJ@?$AAu?$AAz?$AA?9?$AAU?$AAZ?$AA?9?$AAL?$AAa?$AAt?$AAn?$AA?$AA@ 0000000180030090     libucrt:lcidtoname_downlevel.obj
 0002:000040a8       ??_C@_1M@IDCCIHBC@?$AAt?$AAt?$AA?9?$AAR?$AAU?$AA?$AA@ 00000001800300a8     libucrt:lcidtoname_downlevel.obj
 0002:000040b8       ??_C@_1M@LOICPMOJ@?$AAb?$AAn?$AA?9?$AAI?$AAN?$AA?$AA@ 00000001800300b8     libucrt:lcidtoname_downlevel.obj
 0002:000040c8       ??_C@_1M@KPKKNEAH@?$AAp?$AAa?$AA?9?$AAI?$AAN?$AA?$AA@ 00000001800300c8     libucrt:lcidtoname_downlevel.obj
 0002:000040d8       ??_C@_1M@PJGPPBOG@?$AAg?$AAu?$AA?9?$AAI?$AAN?$AA?$AA@ 00000001800300d8     libucrt:lcidtoname_downlevel.obj
 0002:000040e8       ??_C@_1M@KMKMOPHI@?$AAt?$AAa?$AA?9?$AAI?$AAN?$AA?$AA@ 00000001800300e8     libucrt:lcidtoname_downlevel.obj
 0002:000040f8       ??_C@_1M@KFEHEPAC@?$AAt?$AAe?$AA?9?$AAI?$AAN?$AA?$AA@ 00000001800300f8     libucrt:lcidtoname_downlevel.obj
 0002:00004108       ??_C@_1M@CDCLMGHI@?$AAk?$AAn?$AA?9?$AAI?$AAN?$AA?$AA@ 0000000180030108     libucrt:lcidtoname_downlevel.obj
 0002:00004118       ??_C@_1M@MIODLDKF@?$AAm?$AAl?$AA?9?$AAI?$AAN?$AA?$AA@ 0000000180030118     libucrt:lcidtoname_downlevel.obj
 0002:00004128       ??_C@_1M@PBIEACPO@?$AAm?$AAr?$AA?9?$AAI?$AAN?$AA?$AA@ 0000000180030128     libucrt:lcidtoname_downlevel.obj
 0002:00004138       ??_C@_1M@NIDEAGPH@?$AAs?$AAa?$AA?9?$AAI?$AAN?$AA?$AA@ 0000000180030138     libucrt:lcidtoname_downlevel.obj
 0002:00004148       ??_C@_1M@FHIHCBIO@?$AAm?$AAn?$AA?9?$AAM?$AAN?$AA?$AA@ 0000000180030148     libucrt:lcidtoname_downlevel.obj
 0002:00004158       ??_C@_1M@JAIJPENP@?$AAc?$AAy?$AA?9?$AAG?$AAB?$AA?$AA@ 0000000180030158     libucrt:lcidtoname_downlevel.obj
 0002:00004168       ??_C@_1M@PHGFBEPN@?$AAg?$AAl?$AA?9?$AAE?$AAS?$AA?$AA@ 0000000180030168     libucrt:lcidtoname_downlevel.obj
 0002:00004178       ??_C@_1O@KPIPDNCP@?$AAk?$AAo?$AAk?$AA?9?$AAI?$AAN?$AA?$AA@ 0000000180030178     libucrt:lcidtoname_downlevel.obj
 0002:00004188       ??_C@_1O@KNHJLDJA@?$AAs?$AAy?$AAr?$AA?9?$AAS?$AAY?$AA?$AA@ 0000000180030188     libucrt:lcidtoname_downlevel.obj
 0002:00004198       ??_C@_1O@MKEKBLAH@?$AAd?$AAi?$AAv?$AA?9?$AAM?$AAV?$AA?$AA@ 0000000180030198     libucrt:lcidtoname_downlevel.obj
 0002:000041a8       ??_C@_1O@OHDCKDDF@?$AAq?$AAu?$AAz?$AA?9?$AAB?$AAO?$AA?$AA@ 00000001800301a8     libucrt:lcidtoname_downlevel.obj
 0002:000041b8       ??_C@_1M@LEPJNLFD@?$AAn?$AAs?$AA?9?$AAZ?$AAA?$AA?$AA@ 00000001800301b8     libucrt:lcidtoname_downlevel.obj
 0002:000041c8       ??_C@_1M@OMLEIIJB@?$AAm?$AAi?$AA?9?$AAN?$AAZ?$AA?$AA@ 00000001800301c8     libucrt:lcidtoname_downlevel.obj
 0002:000041d8       ??_C@_1M@PMPEAILG@?$AAa?$AAr?$AA?9?$AAI?$AAQ?$AA?$AA@ 00000001800301d8     libucrt:lcidtoname_downlevel.obj
 0002:000041e8       ??_C@_1M@CNKPNOEE@?$AAd?$AAe?$AA?9?$AAC?$AAH?$AA?$AA@ 00000001800301e8     libucrt:lcidtoname_downlevel.obj
 0002:000041f8       ??_C@_1M@LKMGMLKO@?$AAe?$AAn?$AA?9?$AAG?$AAB?$AA?$AA@ 00000001800301f8     libucrt:lcidtoname_downlevel.obj
 0002:00004208       ??_C@_1M@PGKJFFGL@?$AAe?$AAs?$AA?9?$AAM?$AAX?$AA?$AA@ 0000000180030208     libucrt:lcidtoname_downlevel.obj
 0002:00004218       ??_C@_1M@DNNANBDC@?$AAf?$AAr?$AA?9?$AAB?$AAE?$AA?$AA@ 0000000180030218     libucrt:lcidtoname_downlevel.obj
 0002:00004228       ??_C@_1M@HLGMDFHM@?$AAi?$AAt?$AA?9?$AAC?$AAH?$AA?$AA@ 0000000180030228     libucrt:lcidtoname_downlevel.obj
 0002:00004238       ??_C@_1M@CLLBGJH@?$AAn?$AAl?$AA?9?$AAB?$AAE?$AA?$AA@ 0000000180030238     libucrt:lcidtoname_downlevel.obj
 0002:00004248       ??_C@_1M@BODBOGLF@?$AAn?$AAn?$AA?9?$AAN?$AAO?$AA?$AA@ 0000000180030248     libucrt:lcidtoname_downlevel.obj
 0002:00004258       ??_C@_1M@HFFAHKAD@?$AAp?$AAt?$AA?9?$AAP?$AAT?$AA?$AA@ 0000000180030258     libucrt:lcidtoname_downlevel.obj
 0002:00004268       ??_C@_1BG@LNOAKHIE@?$AAs?$AAr?$AA?9?$AAS?$AAP?$AA?9?$AAL?$AAa?$AAt?$AAn?$AA?$AA@ 0000000180030268     libucrt:lcidtoname_downlevel.obj
 0002:00004280       ??_C@_1M@HBMHBGAK@?$AAs?$AAv?$AA?9?$AAF?$AAI?$AA?$AA@ 0000000180030280     libucrt:lcidtoname_downlevel.obj
 0002:00004290       ??_C@_1BG@DGCJGJBE@?$AAa?$AAz?$AA?9?$AAA?$AAZ?$AA?9?$AAC?$AAy?$AAr?$AAl?$AA?$AA@ 0000000180030290     libucrt:lcidtoname_downlevel.obj
 0002:000042a8       ??_C@_1M@KEJDAAHB@?$AAs?$AAe?$AA?9?$AAS?$AAE?$AA?$AA@ 00000001800302a8     libucrt:lcidtoname_downlevel.obj
 0002:000042b8       ??_C@_1M@HEIBJJAD@?$AAm?$AAs?$AA?9?$AAB?$AAN?$AA?$AA@ 00000001800302b8     libucrt:lcidtoname_downlevel.obj
 0002:000042c8       ??_C@_1BG@PBGJMCEM@?$AAu?$AAz?$AA?9?$AAU?$AAZ?$AA?9?$AAC?$AAy?$AAr?$AAl?$AA?$AA@ 00000001800302c8     libucrt:lcidtoname_downlevel.obj
 0002:000042e0       ??_C@_1O@LAOBCMDF@?$AAq?$AAu?$AAz?$AA?9?$AAE?$AAC?$AA?$AA@ 00000001800302e0     libucrt:lcidtoname_downlevel.obj
 0002:000042f0       ??_C@_1M@POEEMAIO@?$AAa?$AAr?$AA?9?$AAE?$AAG?$AA?$AA@ 00000001800302f0     libucrt:lcidtoname_downlevel.obj
 0002:00004300       ??_C@_1M@EFAKDEDL@?$AAz?$AAh?$AA?9?$AAH?$AAK?$AA?$AA@ 0000000180030300     libucrt:lcidtoname_downlevel.obj
 0002:00004310       ??_C@_1M@HKKIJHGI@?$AAd?$AAe?$AA?9?$AAA?$AAT?$AA?$AA@ 0000000180030310     libucrt:lcidtoname_downlevel.obj
 0002:00004320       ??_C@_1M@KBFBEHJF@?$AAe?$AAn?$AA?9?$AAA?$AAU?$AA?$AA@ 0000000180030320     libucrt:lcidtoname_downlevel.obj
 0002:00004330       ??_C@_1M@MNPLFAAH@?$AAe?$AAs?$AA?9?$AAE?$AAS?$AA?$AA@ 0000000180030330     libucrt:lcidtoname_downlevel.obj
 0002:00004340       ??_C@_1M@HJOOJFMA@?$AAf?$AAr?$AA?9?$AAC?$AAA?$AA?$AA@ 0000000180030340     libucrt:lcidtoname_downlevel.obj
 0002:00004350       ??_C@_1BG@JPOFPNAB@?$AAs?$AAr?$AA?9?$AAS?$AAP?$AA?9?$AAC?$AAy?$AAr?$AAl?$AA?$AA@ 0000000180030350     libucrt:lcidtoname_downlevel.obj
 0002:00004368       ??_C@_1M@LNFOCMOB@?$AAs?$AAe?$AA?9?$AAF?$AAI?$AA?$AA@ 0000000180030368     libucrt:lcidtoname_downlevel.obj
 0002:00004378       ??_C@_1O@MGJBOAMB@?$AAq?$AAu?$AAz?$AA?9?$AAP?$AAE?$AA?$AA@ 0000000180030378     libucrt:lcidtoname_downlevel.obj
 0002:00004388       ??_C@_1M@GJINLBOK@?$AAa?$AAr?$AA?9?$AAL?$AAY?$AA?$AA@ 0000000180030388     libucrt:lcidtoname_downlevel.obj
 0002:00004398       ??_C@_1M@GGMNHJNL@?$AAz?$AAh?$AA?9?$AAS?$AAG?$AA?$AA@ 0000000180030398     libucrt:lcidtoname_downlevel.obj
 0002:000043a8       ??_C@_1M@HOIKODND@?$AAd?$AAe?$AA?9?$AAL?$AAU?$AA?$AA@ 00000001800303a8     libucrt:lcidtoname_downlevel.obj
 0002:000043b8       ??_C@_1M@DDOCCGFG@?$AAe?$AAn?$AA?9?$AAC?$AAA?$AA?$AA@ 00000001800303b8     libucrt:lcidtoname_downlevel.obj
 0002:000043c8       ??_C@_1M@BNOEMJLF@?$AAe?$AAs?$AA?9?$AAG?$AAT?$AA?$AA@ 00000001800303c8     libucrt:lcidtoname_downlevel.obj
 0002:000043d8       ??_C@_1M@EOGNKEK@?$AAf?$AAr?$AA?9?$AAC?$AAH?$AA?$AA@ 00000001800303d8     libucrt:lcidtoname_downlevel.obj
 0002:000043e8       ??_C@_1M@FLIDJFHL@?$AAh?$AAr?$AA?9?$AAB?$AAA?$AA?$AA@ 00000001800303e8     libucrt:lcidtoname_downlevel.obj
 0002:000043f8       ??_C@_1O@FMCELNAJ@?$AAs?$AAm?$AAj?$AA?9?$AAN?$AAO?$AA?$AA@ 00000001800303f8     libucrt:lcidtoname_downlevel.obj
 0002:00004408       ??_C@_1M@JHGLJMGJ@?$AAa?$AAr?$AA?9?$AAD?$AAZ?$AA?$AA@ 0000000180030408     libucrt:lcidtoname_downlevel.obj
 0002:00004418       ??_C@_1M@JKKFDCNP@?$AAz?$AAh?$AA?9?$AAM?$AAO?$AA?$AA@ 0000000180030418     libucrt:lcidtoname_downlevel.obj
 0002:00004428       ??_C@_1M@GEEFALPE@?$AAd?$AAe?$AA?9?$AAL?$AAI?$AA?$AA@ 0000000180030428     libucrt:lcidtoname_downlevel.obj
 0002:00004438       ??_C@_1M@IGEOFBG@?$AAe?$AAn?$AA?9?$AAN?$AAZ?$AA?$AA@ 0000000180030438     libucrt:lcidtoname_downlevel.obj
 0002:00004448       ??_C@_1M@KDBONEHP@?$AAe?$AAs?$AA?9?$AAC?$AAR?$AA?$AA@ 0000000180030448     libucrt:lcidtoname_downlevel.obj
 0002:00004458       ??_C@_1M@FHMDOHNN@?$AAf?$AAr?$AA?9?$AAL?$AAU?$AA?$AA@ 0000000180030458     libucrt:lcidtoname_downlevel.obj
 0002:00004468       ??_C@_1BG@NFKKMAFG@?$AAb?$AAs?$AA?9?$AAB?$AAA?$AA?9?$AAL?$AAa?$AAt?$AAn?$AA?$AA@ 0000000180030468     libucrt:lcidtoname_downlevel.obj
 0002:00004480       ??_C@_1O@IMNBEMCI@?$AAs?$AAm?$AAj?$AA?9?$AAS?$AAE?$AA?$AA@ 0000000180030480     libucrt:lcidtoname_downlevel.obj
 0002:00004490       ??_C@_1M@DHHMBNDP@?$AAa?$AAr?$AA?9?$AAM?$AAA?$AA?$AA@ 0000000180030490     libucrt:lcidtoname_downlevel.obj
 0002:000044a0       ??_C@_1M@BNBLJCGH@?$AAe?$AAn?$AA?9?$AAI?$AAE?$AA?$AA@ 00000001800304a0     libucrt:lcidtoname_downlevel.obj
 0002:000044b0       ??_C@_1M@GEPAFMDL@?$AAe?$AAs?$AA?9?$AAP?$AAA?$AA?$AA@ 00000001800304b0     libucrt:lcidtoname_downlevel.obj
 0002:000044c0       ??_C@_1M@OJONDMDL@?$AAf?$AAr?$AA?9?$AAM?$AAC?$AA?$AA@ 00000001800304c0     libucrt:lcidtoname_downlevel.obj
 0002:000044d0       ??_C@_1BG@OBCNFJB@?$AAs?$AAr?$AA?9?$AAB?$AAA?$AA?9?$AAL?$AAa?$AAt?$AAn?$AA?$AA@ 00000001800304d0     libucrt:lcidtoname_downlevel.obj
 0002:000044e8       ??_C@_1O@KEMEEGPO@?$AAs?$AAm?$AAa?$AA?9?$AAN?$AAO?$AA?$AA@ 00000001800304e8     libucrt:lcidtoname_downlevel.obj
 0002:000044f8       ??_C@_1M@ELMGFODK@?$AAa?$AAr?$AA?9?$AAT?$AAN?$AA?$AA@ 00000001800304f8     libucrt:lcidtoname_downlevel.obj
 0002:00004508       ??_C@_1M@BHDLHFAF@?$AAe?$AAn?$AA?9?$AAZ?$AAA?$AA?$AA@ 0000000180030508     libucrt:lcidtoname_downlevel.obj
 0002:00004518       ??_C@_1M@BMGIGLIF@?$AAe?$AAs?$AA?9?$AAD?$AAO?$AA?$AA@ 0000000180030518     libucrt:lcidtoname_downlevel.obj
 0002:00004528       ??_C@_1BG@CMBHIPBE@?$AAs?$AAr?$AA?9?$AAB?$AAA?$AA?9?$AAC?$AAy?$AAr?$AAl?$AA?$AA@ 0000000180030528     libucrt:lcidtoname_downlevel.obj
 0002:00004540       ??_C@_1O@HEDBLHNP@?$AAs?$AAm?$AAa?$AA?9?$AAS?$AAE?$AA?$AA@ 0000000180030540     libucrt:lcidtoname_downlevel.obj
 0002:00004550       ??_C@_1M@DAGCADIM@?$AAa?$AAr?$AA?9?$AAO?$AAM?$AA?$AA@ 0000000180030550     libucrt:lcidtoname_downlevel.obj
 0002:00004560       ??_C@_1M@FODLMICG@?$AAe?$AAn?$AA?9?$AAJ?$AAM?$AA?$AA@ 0000000180030560     libucrt:lcidtoname_downlevel.obj
 0002:00004570       ??_C@_1M@DNMLCIHB@?$AAe?$AAs?$AA?9?$AAV?$AAE?$AA?$AA@ 0000000180030570     libucrt:lcidtoname_downlevel.obj
 0002:00004580       ??_C@_1O@EOKHMKJK@?$AAs?$AAm?$AAs?$AA?9?$AAF?$AAI?$AA?$AA@ 0000000180030580     libucrt:lcidtoname_downlevel.obj
 0002:00004590       ??_C@_1M@CAFJMKOF@?$AAa?$AAr?$AA?9?$AAY?$AAE?$AA?$AA@ 0000000180030590     libucrt:lcidtoname_downlevel.obj
 0002:000045a0       ??_C@_1M@CBFHIJLI@?$AAe?$AAn?$AA?9?$AAC?$AAB?$AA?$AA@ 00000001800305a0     libucrt:lcidtoname_downlevel.obj
 0002:000045b0       ??_C@_1M@BGNFLDN@?$AAe?$AAs?$AA?9?$AAC?$AAO?$AA?$AA@ 00000001800305b0     libucrt:lcidtoname_downlevel.obj
 0002:000045c0       ??_C@_1O@JMPHMAMC@?$AAs?$AAm?$AAn?$AA?9?$AAF?$AAI?$AA?$AA@ 00000001800305c0     libucrt:lcidtoname_downlevel.obj
 0002:000045d0       ??_C@_1M@JLANABKE@?$AAa?$AAr?$AA?9?$AAS?$AAY?$AA?$AA@ 00000001800305d0     libucrt:lcidtoname_downlevel.obj
 0002:000045e0       ??_C@_1M@HPKGCFGN@?$AAe?$AAn?$AA?9?$AAB?$AAZ?$AA?$AA@ 00000001800305e0     libucrt:lcidtoname_downlevel.obj
 0002:000045f0       ??_C@_1M@OLJCMLGM@?$AAe?$AAs?$AA?9?$AAP?$AAE?$AA?$AA@ 00000001800305f0     libucrt:lcidtoname_downlevel.obj
 0002:00004600       ??_C@_1M@MKKGFKLE@?$AAa?$AAr?$AA?9?$AAJ?$AAO?$AA?$AA@ 0000000180030600     libucrt:lcidtoname_downlevel.obj
 0002:00004610       ??_C@_1M@EKPGLDNI@?$AAe?$AAn?$AA?9?$AAT?$AAT?$AA?$AA@ 0000000180030610     libucrt:lcidtoname_downlevel.obj
 0002:00004620       ??_C@_1M@OONGHFHE@?$AAe?$AAs?$AA?9?$AAA?$AAR?$AA?$AA@ 0000000180030620     libucrt:lcidtoname_downlevel.obj
 0002:00004630       ??_C@_1M@OOJFGBHE@?$AAa?$AAr?$AA?9?$AAL?$AAB?$AA?$AA@ 0000000180030630     libucrt:lcidtoname_downlevel.obj
 0002:00004640       ??_C@_1M@GCEJHNEG@?$AAe?$AAn?$AA?9?$AAZ?$AAW?$AA?$AA@ 0000000180030640     libucrt:lcidtoname_downlevel.obj
 0002:00004650       ??_C@_1M@JNOCAHJI@?$AAe?$AAs?$AA?9?$AAE?$AAC?$AA?$AA@ 0000000180030650     libucrt:lcidtoname_downlevel.obj
 0002:00004660       ??_C@_1M@JEFHPGGB@?$AAa?$AAr?$AA?9?$AAK?$AAW?$AA?$AA@ 0000000180030660     libucrt:lcidtoname_downlevel.obj
 0002:00004670       ??_C@_1M@MLKIBJOJ@?$AAe?$AAn?$AA?9?$AAP?$AAH?$AA?$AA@ 0000000180030670     libucrt:lcidtoname_downlevel.obj
 0002:00004680       ??_C@_1M@BDNIPEND@?$AAe?$AAs?$AA?9?$AAC?$AAL?$AA?$AA@ 0000000180030680     libucrt:lcidtoname_downlevel.obj
 0002:00004690       ??_C@_1M@MPNMEKBD@?$AAa?$AAr?$AA?9?$AAA?$AAE?$AA?$AA@ 0000000180030690     libucrt:lcidtoname_downlevel.obj
 0002:000046a0       ??_C@_1M@KBJALCPI@?$AAe?$AAs?$AA?9?$AAU?$AAY?$AA?$AA@ 00000001800306a0     libucrt:lcidtoname_downlevel.obj
 0002:000046b0       ??_C@_1M@LLCCOAGA@?$AAa?$AAr?$AA?9?$AAB?$AAH?$AA?$AA@ 00000001800306b0     libucrt:lcidtoname_downlevel.obj
 0002:000046c0       ??_C@_1M@PBFNCDEL@?$AAe?$AAs?$AA?9?$AAP?$AAY?$AA?$AA@ 00000001800306c0     libucrt:lcidtoname_downlevel.obj
 0002:000046d0       ??_C@_1M@EDGINPNP@?$AAa?$AAr?$AA?9?$AAQ?$AAA?$AA?$AA@ 00000001800306d0     libucrt:lcidtoname_downlevel.obj
 0002:000046e0       ??_C@_1M@MKDBIIJI@?$AAe?$AAs?$AA?9?$AAB?$AAO?$AA?$AA@ 00000001800306e0     libucrt:lcidtoname_downlevel.obj
 0002:000046f0       ??_C@_1M@CPKKEBLD@?$AAe?$AAs?$AA?9?$AAS?$AAV?$AA?$AA@ 00000001800306f0     libucrt:lcidtoname_downlevel.obj
 0002:00004700       ??_C@_1M@NDBGMMJL@?$AAe?$AAs?$AA?9?$AAH?$AAN?$AA?$AA@ 0000000180030700     libucrt:lcidtoname_downlevel.obj
 0002:00004710       ??_C@_1M@JIJIBHDP@?$AAe?$AAs?$AA?9?$AAN?$AAI?$AA?$AA@ 0000000180030710     libucrt:lcidtoname_downlevel.obj
 0002:00004720       ??_C@_1M@CGFMKEEK@?$AAe?$AAs?$AA?9?$AAP?$AAR?$AA?$AA@ 0000000180030720     libucrt:lcidtoname_downlevel.obj
 0002:00004730       ??_C@_1O@ICJHKIIK@?$AAz?$AAh?$AA?9?$AAC?$AAH?$AAT?$AA?$AA@ 0000000180030730     libucrt:lcidtoname_downlevel.obj
 0002:00004740       ??_C@_15CLNEJCE@?$AAs?$AAr?$AA?$AA@ 0000000180030740     libucrt:lcidtoname_downlevel.obj
 0002:00005590       ??_C@_1M@KAHEKEIG@?$AAa?$AAf?$AA?9?$AAz?$AAa?$AA?$AA@ 0000000180031590     libucrt:lcidtoname_downlevel.obj
 0002:000055a0       ??_C@_1M@GIECOABL@?$AAa?$AAr?$AA?9?$AAa?$AAe?$AA?$AA@ 00000001800315a0     libucrt:lcidtoname_downlevel.obj
 0002:000055b0       ??_C@_1M@BMLMEKGI@?$AAa?$AAr?$AA?9?$AAb?$AAh?$AA?$AA@ 00000001800315b0     libucrt:lcidtoname_downlevel.obj
 0002:000055c0       ??_C@_1M@DAPFDGGB@?$AAa?$AAr?$AA?9?$AAd?$AAz?$AA?$AA@ 00000001800315c0     libucrt:lcidtoname_downlevel.obj
 0002:000055d0       ??_C@_1M@FJNKGKIG@?$AAa?$AAr?$AA?9?$AAe?$AAg?$AA?$AA@ 00000001800315d0     libucrt:lcidtoname_downlevel.obj
 0002:000055e0       ??_C@_1M@FLGKKCLO@?$AAa?$AAr?$AA?9?$AAi?$AAq?$AA?$AA@ 00000001800315e0     libucrt:lcidtoname_downlevel.obj
 0002:000055f0       ??_C@_1M@GNDIPALM@?$AAa?$AAr?$AA?9?$AAj?$AAo?$AA?$AA@ 00000001800315f0     libucrt:lcidtoname_downlevel.obj
 0002:00005600       ??_C@_1M@DDMJFMGJ@?$AAa?$AAr?$AA?9?$AAk?$AAw?$AA?$AA@ 0000000180031600     libucrt:lcidtoname_downlevel.obj
 0002:00005610       ??_C@_1M@EJALMLHM@?$AAa?$AAr?$AA?9?$AAl?$AAb?$AA?$AA@ 0000000180031610     libucrt:lcidtoname_downlevel.obj
 0002:00005620       ??_C@_1M@MOBDBLOC@?$AAa?$AAr?$AA?9?$AAl?$AAy?$AA?$AA@ 0000000180031620     libucrt:lcidtoname_downlevel.obj
 0002:00005630       ??_C@_1M@JAOCLHDH@?$AAa?$AAr?$AA?9?$AAm?$AAa?$AA?$AA@ 0000000180031630     libucrt:lcidtoname_downlevel.obj
 0002:00005640       ??_C@_1M@JHPMKJIE@?$AAa?$AAr?$AA?9?$AAo?$AAm?$AA?$AA@ 0000000180031640     libucrt:lcidtoname_downlevel.obj
 0002:00005650       ??_C@_1M@OEPGHFNH@?$AAa?$AAr?$AA?9?$AAq?$AAa?$AA?$AA@ 0000000180031650     libucrt:lcidtoname_downlevel.obj
 0002:00005660       ??_C@_1M@KJDONENM@?$AAa?$AAr?$AA?9?$AAs?$AAa?$AA?$AA@ 0000000180031660     libucrt:lcidtoname_downlevel.obj
 0002:00005670       ??_C@_1M@DMJDKLKM@?$AAa?$AAr?$AA?9?$AAs?$AAy?$AA?$AA@ 0000000180031670     libucrt:lcidtoname_downlevel.obj
 0002:00005680       ??_C@_1M@OMFIPEDC@?$AAa?$AAr?$AA?9?$AAt?$AAn?$AA?$AA@ 0000000180031680     libucrt:lcidtoname_downlevel.obj
 0002:00005690       ??_C@_1M@IHMHGAON@?$AAa?$AAr?$AA?9?$AAy?$AAe?$AA?$AA@ 0000000180031690     libucrt:lcidtoname_downlevel.obj
 0002:000056a0       ??_C@_1BG@KDCPGJGB@?$AAa?$AAz?$AA?9?$AAa?$AAz?$AA?9?$AAc?$AAy?$AAr?$AAl?$AA?$AA@ 00000001800316a0     libucrt:lcidtoname_downlevel.obj
 0002:000056b8       ??_C@_1BG@IBCKDDOE@?$AAa?$AAz?$AA?9?$AAa?$AAz?$AA?9?$AAl?$AAa?$AAt?$AAn?$AA?$AA@ 00000001800316b8     libucrt:lcidtoname_downlevel.obj
 0002:000056d0       ??_C@_1M@EGPFDCPD@?$AAb?$AAe?$AA?9?$AAb?$AAy?$AA?$AA@ 00000001800316d0     libucrt:lcidtoname_downlevel.obj
 0002:000056e0       ??_C@_1M@PCMGMCGC@?$AAb?$AAg?$AA?9?$AAb?$AAg?$AA?$AA@ 00000001800316e0     libucrt:lcidtoname_downlevel.obj
 0002:000056f0       ??_C@_1M@BJBMFGOB@?$AAb?$AAn?$AA?9?$AAi?$AAn?$AA?$AA@ 00000001800316f0     libucrt:lcidtoname_downlevel.obj
 0002:00005700       ??_C@_1BG@EAKMMACD@?$AAb?$AAs?$AA?9?$AAb?$AAa?$AA?9?$AAl?$AAa?$AAt?$AAn?$AA?$AA@ 0000000180031700     libucrt:lcidtoname_downlevel.obj
 0002:00005718       ??_C@_1M@KGADAODK@?$AAc?$AAa?$AA?9?$AAe?$AAs?$AA?$AA@ 0000000180031718     libucrt:lcidtoname_downlevel.obj
 0002:00005728       ??_C@_1M@COAJPDHI@?$AAc?$AAs?$AA?9?$AAc?$AAz?$AA?$AA@ 0000000180031728     libucrt:lcidtoname_downlevel.obj
 0002:00005738       ??_C@_1M@DHBHFONH@?$AAc?$AAy?$AA?9?$AAg?$AAb?$AA?$AA@ 0000000180031738     libucrt:lcidtoname_downlevel.obj
 0002:00005748       ??_C@_1M@IMGKELGA@?$AAd?$AAa?$AA?9?$AAd?$AAk?$AA?$AA@ 0000000180031748     libucrt:lcidtoname_downlevel.obj
 0002:00005758       ??_C@_1M@NNDGDNGA@?$AAd?$AAe?$AA?9?$AAa?$AAt?$AA?$AA@ 0000000180031758     libucrt:lcidtoname_downlevel.obj
 0002:00005768       ??_C@_1M@IKDBHEEM@?$AAd?$AAe?$AA?9?$AAc?$AAh?$AA?$AA@ 0000000180031768     libucrt:lcidtoname_downlevel.obj
 0002:00005778       ??_C@_1M@GFFOJMCJ@?$AAd?$AAe?$AA?9?$AAd?$AAe?$AA?$AA@ 0000000180031778     libucrt:lcidtoname_downlevel.obj
 0002:00005788       ??_C@_1M@MDNLKBPM@?$AAd?$AAe?$AA?9?$AAl?$AAi?$AA?$AA@ 0000000180031788     libucrt:lcidtoname_downlevel.obj
 0002:00005798       ??_C@_1M@NJBEEJNL@?$AAd?$AAe?$AA?9?$AAl?$AAu?$AA?$AA@ 0000000180031798     libucrt:lcidtoname_downlevel.obj
 0002:000057a8       ??_C@_1O@GNNELBAP@?$AAd?$AAi?$AAv?$AA?9?$AAm?$AAv?$AA?$AA@ 00000001800317a8     libucrt:lcidtoname_downlevel.obj
 0002:000057b8       ??_C@_1M@EJLEOGAE@?$AAe?$AAl?$AA?9?$AAg?$AAr?$AA?$AA@ 00000001800317b8     libucrt:lcidtoname_downlevel.obj
 0002:000057c8       ??_C@_1M@GMPONJN@?$AAe?$AAn?$AA?9?$AAa?$AAu?$AA?$AA@ 00000001800317c8     libucrt:lcidtoname_downlevel.obj
 0002:000057d8       ??_C@_1M@NIDIIPGF@?$AAe?$AAn?$AA?9?$AAb?$AAz?$AA?$AA@ 00000001800317d8     libucrt:lcidtoname_downlevel.obj
 0002:000057e8       ??_C@_1M@JEHMIMFO@?$AAe?$AAn?$AA?9?$AAc?$AAa?$AA?$AA@ 00000001800317e8     libucrt:lcidtoname_downlevel.obj
 0002:000057f8       ??_C@_1M@IGMJCDLA@?$AAe?$AAn?$AA?9?$AAc?$AAb?$AA?$AA@ 00000001800317f8     libucrt:lcidtoname_downlevel.obj
 0002:00005808       ??_C@_1M@BNFIGBKG@?$AAe?$AAn?$AA?9?$AAg?$AAb?$AA?$AA@ 0000000180031808     libucrt:lcidtoname_downlevel.obj
 0002:00005818       ??_C@_1M@LKIFDIGP@?$AAe?$AAn?$AA?9?$AAi?$AAe?$AA?$AA@ 0000000180031818     libucrt:lcidtoname_downlevel.obj
 0002:00005828       ??_C@_1M@PJKFGCCO@?$AAe?$AAn?$AA?9?$AAj?$AAm?$AA?$AA@ 0000000180031828     libucrt:lcidtoname_downlevel.obj
 0002:00005838       ??_C@_1M@KPPKEPBO@?$AAe?$AAn?$AA?9?$AAn?$AAz?$AA?$AA@ 0000000180031838     libucrt:lcidtoname_downlevel.obj
 0002:00005848       ??_C@_1M@GMDGLDOB@?$AAe?$AAn?$AA?9?$AAp?$AAh?$AA?$AA@ 0000000180031848     libucrt:lcidtoname_downlevel.obj
 0002:00005858       ??_C@_1M@ONGIBJNA@?$AAe?$AAn?$AA?9?$AAt?$AAt?$AA?$AA@ 0000000180031858     libucrt:lcidtoname_downlevel.obj
 0002:00005868       ??_C@_1M@LLODPCMM@?$AAe?$AAn?$AA?9?$AAu?$AAs?$AA?$AA@ 0000000180031868     libucrt:lcidtoname_downlevel.obj
 0002:00005878       ??_C@_1M@LAKFNPAN@?$AAe?$AAn?$AA?9?$AAz?$AAa?$AA?$AA@ 0000000180031878     libucrt:lcidtoname_downlevel.obj
 0002:00005888       ??_C@_1M@MFNHNHEO@?$AAe?$AAn?$AA?9?$AAz?$AAw?$AA?$AA@ 0000000180031888     libucrt:lcidtoname_downlevel.obj
 0002:00005898       ??_C@_1M@EJEINPHM@?$AAe?$AAs?$AA?9?$AAa?$AAr?$AA?$AA@ 0000000180031898     libucrt:lcidtoname_downlevel.obj
 0002:000058a8       ??_C@_1M@GNKPCCJA@?$AAe?$AAs?$AA?9?$AAb?$AAo?$AA?$AA@ 00000001800318a8     libucrt:lcidtoname_downlevel.obj
 0002:000058b8       ??_C@_1M@LEEGFONL@?$AAe?$AAs?$AA?9?$AAc?$AAl?$AA?$AA@ 00000001800318b8     libucrt:lcidtoname_downlevel.obj
 0002:000058c8       ??_C@_1M@KGPDPBDF@?$AAe?$AAs?$AA?9?$AAc?$AAo?$AA?$AA@ 00000001800318c8     libucrt:lcidtoname_downlevel.obj
 0002:000058d8       ??_C@_1M@EIAHOHH@?$AAe?$AAs?$AA?9?$AAc?$AAr?$AA?$AA@ 00000001800318d8     libucrt:lcidtoname_downlevel.obj
 0002:000058e8       ??_C@_1M@LLPGMBIN@?$AAe?$AAs?$AA?9?$AAd?$AAo?$AA?$AA@ 00000001800318e8     libucrt:lcidtoname_downlevel.obj
 0002:000058f8       ??_C@_1M@DKHMKNJA@?$AAe?$AAs?$AA?9?$AAe?$AAc?$AA?$AA@ 00000001800318f8     libucrt:lcidtoname_downlevel.obj
 0002:00005908       ??_C@_1M@GKGFPKAP@?$AAe?$AAs?$AA?9?$AAe?$AAs?$AA?$AA@ 0000000180031908     libucrt:lcidtoname_downlevel.obj
 0002:00005918       ??_C@_1M@LKHKGDLN@?$AAe?$AAs?$AA?9?$AAg?$AAt?$AA?$AA@ 0000000180031918     libucrt:lcidtoname_downlevel.obj
 0002:00005928       ??_C@_1M@HEIIGGJD@?$AAe?$AAs?$AA?9?$AAh?$AAn?$AA?$AA@ 0000000180031928     libucrt:lcidtoname_downlevel.obj
 0002:00005938       ??_C@_1M@FBDHPPGD@?$AAe?$AAs?$AA?9?$AAm?$AAx?$AA?$AA@ 0000000180031938     libucrt:lcidtoname_downlevel.obj
 0002:00005948       ??_C@_1M@DPAGLNDH@?$AAe?$AAs?$AA?9?$AAn?$AAi?$AA?$AA@ 0000000180031948     libucrt:lcidtoname_downlevel.obj
 0002:00005958       ??_C@_1M@MDGOPGDD@?$AAe?$AAs?$AA?9?$AAp?$AAa?$AA?$AA@ 0000000180031958     libucrt:lcidtoname_downlevel.obj
 0002:00005968       ??_C@_1M@EMAMGBGE@?$AAe?$AAs?$AA?9?$AAp?$AAe?$AA?$AA@ 0000000180031968     libucrt:lcidtoname_downlevel.obj
 0002:00005978       ??_C@_1M@IBMCAOEC@?$AAe?$AAs?$AA?9?$AAp?$AAr?$AA?$AA@ 0000000180031978     libucrt:lcidtoname_downlevel.obj
 0002:00005988       ??_C@_1M@FGMDIJED@?$AAe?$AAs?$AA?9?$AAp?$AAy?$AA?$AA@ 0000000180031988     libucrt:lcidtoname_downlevel.obj
 0002:00005998       ??_C@_1M@IIDEOLLL@?$AAe?$AAs?$AA?9?$AAs?$AAv?$AA?$AA@ 0000000180031998     libucrt:lcidtoname_downlevel.obj
 0002:000059a8       ??_C@_1M@GAOBIPA@?$AAe?$AAs?$AA?9?$AAu?$AAy?$AA?$AA@ 00000001800319a8     libucrt:lcidtoname_downlevel.obj
 0002:000059b8       ??_C@_1M@JKFFICHJ@?$AAe?$AAs?$AA?9?$AAv?$AAe?$AA?$AA@ 00000001800319b8     libucrt:lcidtoname_downlevel.obj
 0002:000059c8       ??_C@_1M@PNMLOJDF@?$AAe?$AAt?$AA?9?$AAe?$AAe?$AA?$AA@ 00000001800319c8     libucrt:lcidtoname_downlevel.obj
 0002:000059d8       ??_C@_1M@GHHLIKEI@?$AAe?$AAu?$AA?9?$AAe?$AAs?$AA?$AA@ 00000001800319d8     libucrt:lcidtoname_downlevel.obj
 0002:000059e8       ??_C@_1M@PBNONODE@?$AAf?$AAa?$AA?9?$AAi?$AAr?$AA?$AA@ 00000001800319e8     libucrt:lcidtoname_downlevel.obj
 0002:000059f8       ??_C@_1M@JEEHPMIL@?$AAf?$AAi?$AA?9?$AAf?$AAi?$AA?$AA@ 00000001800319f8     libucrt:lcidtoname_downlevel.obj
 0002:00005a08       ??_C@_1M@LMDCNDBA@?$AAf?$AAo?$AA?9?$AAf?$AAo?$AA?$AA@ 0000000180031a08     libucrt:lcidtoname_downlevel.obj
 0002:00005a18       ??_C@_1M@JKEOHLDK@?$AAf?$AAr?$AA?9?$AAb?$AAe?$AA?$AA@ 0000000180031a18     libucrt:lcidtoname_downlevel.obj
 0002:00005a28       ??_C@_1M@NOHADPMI@?$AAf?$AAr?$AA?9?$AAc?$AAa?$AA?$AA@ 0000000180031a28     libucrt:lcidtoname_downlevel.obj
 0002:00005a38       ??_C@_1M@KDHIHAEC@?$AAf?$AAr?$AA?9?$AAc?$AAh?$AA?$AA@ 0000000180031a38     libucrt:lcidtoname_downlevel.obj
 0002:00005a48       ??_C@_1M@MMBBFGAK@?$AAf?$AAr?$AA?9?$AAf?$AAr?$AA?$AA@ 0000000180031a48     libucrt:lcidtoname_downlevel.obj
 0002:00005a58       ??_C@_1M@PAFNENNF@?$AAf?$AAr?$AA?9?$AAl?$AAu?$AA?$AA@ 0000000180031a58     libucrt:lcidtoname_downlevel.obj
 0002:00005a68       ??_C@_1M@EOHDJGDD@?$AAf?$AAr?$AA?9?$AAm?$AAc?$AA?$AA@ 0000000180031a68     libucrt:lcidtoname_downlevel.obj
 0002:00005a78       ??_C@_1M@FAPLLOPF@?$AAg?$AAl?$AA?9?$AAe?$AAs?$AA?$AA@ 0000000180031a78     libucrt:lcidtoname_downlevel.obj
 0002:00005a88       ??_C@_1M@FOPBFLOO@?$AAg?$AAu?$AA?9?$AAi?$AAn?$AA?$AA@ 0000000180031a88     libucrt:lcidtoname_downlevel.obj
 0002:00005a98       ??_C@_1M@KBMCINPM@?$AAh?$AAe?$AA?9?$AAi?$AAl?$AA?$AA@ 0000000180031a98     libucrt:lcidtoname_downlevel.obj
 0002:00005aa8       ??_C@_1M@BBPHKFPJ@?$AAh?$AAi?$AA?9?$AAi?$AAn?$AA?$AA@ 0000000180031aa8     libucrt:lcidtoname_downlevel.obj
 0002:00005ab8       ??_C@_1M@PMBNDPHD@?$AAh?$AAr?$AA?9?$AAb?$AAa?$AA?$AA@ 0000000180031ab8     libucrt:lcidtoname_downlevel.obj
 0002:00005ac8       ??_C@_1M@BPCKOEGE@?$AAh?$AAr?$AA?9?$AAh?$AAr?$AA?$AA@ 0000000180031ac8     libucrt:lcidtoname_downlevel.obj
 0002:00005ad8       ??_C@_1M@GACBMHKE@?$AAh?$AAu?$AA?9?$AAh?$AAu?$AA?$AA@ 0000000180031ad8     libucrt:lcidtoname_downlevel.obj
 0002:00005ae8       ??_C@_1M@MILPAJJC@?$AAh?$AAy?$AA?9?$AAa?$AAm?$AA?$AA@ 0000000180031ae8     libucrt:lcidtoname_downlevel.obj
 0002:00005af8       ??_C@_1M@BABBICEC@?$AAi?$AAd?$AA?9?$AAi?$AAd?$AA?$AA@ 0000000180031af8     libucrt:lcidtoname_downlevel.obj
 0002:00005b08       ??_C@_1M@BIKNHHPF@?$AAi?$AAs?$AA?9?$AAi?$AAs?$AA?$AA@ 0000000180031b08     libucrt:lcidtoname_downlevel.obj
 0002:00005b18       ??_C@_1M@NMPCJPHE@?$AAi?$AAt?$AA?9?$AAc?$AAh?$AA?$AA@ 0000000180031b18     libucrt:lcidtoname_downlevel.obj
 0002:00005b28       ??_C@_1M@GHKGFEDF@?$AAi?$AAt?$AA?9?$AAi?$AAt?$AA?$AA@ 0000000180031b28     libucrt:lcidtoname_downlevel.obj
 0002:00005b38       ??_C@_1M@NIEJCJJA@?$AAj?$AAa?$AA?9?$AAj?$AAp?$AA?$AA@ 0000000180031b38     libucrt:lcidtoname_downlevel.obj
 0002:00005b48       ??_C@_1M@JILFNBIM@?$AAk?$AAa?$AA?9?$AAg?$AAe?$AA?$AA@ 0000000180031b48     libucrt:lcidtoname_downlevel.obj
 0002:00005b58       ??_C@_1M@PACPMGPH@?$AAk?$AAk?$AA?9?$AAk?$AAz?$AA?$AA@ 0000000180031b58     libucrt:lcidtoname_downlevel.obj
 0002:00005b68       ??_C@_1M@IELFGMHA@?$AAk?$AAn?$AA?9?$AAi?$AAn?$AA?$AA@ 0000000180031b68     libucrt:lcidtoname_downlevel.obj
 0002:00005b78       ??_C@_1O@IBBJHCH@?$AAk?$AAo?$AAk?$AA?9?$AAi?$AAn?$AA?$AA@ 0000000180031b78     libucrt:lcidtoname_downlevel.obj
 0002:00005b88       ??_C@_1M@DMHAEOGC@?$AAk?$AAo?$AA?9?$AAk?$AAr?$AA?$AA@ 0000000180031b88     libucrt:lcidtoname_downlevel.obj
 0002:00005b98       ??_C@_1M@HBAHBIGA@?$AAk?$AAy?$AA?9?$AAk?$AAg?$AA?$AA@ 0000000180031b98     libucrt:lcidtoname_downlevel.obj
 0002:00005ba8       ??_C@_1M@KPMILCJG@?$AAl?$AAt?$AA?9?$AAl?$AAt?$AA?$AA@ 0000000180031ba8     libucrt:lcidtoname_downlevel.obj
 0002:00005bb8       ??_C@_1M@BDEKKCA@?$AAl?$AAv?$AA?9?$AAl?$AAv?$AA?$AA@ 0000000180031bb8     libucrt:lcidtoname_downlevel.obj
 0002:00005bc8       ??_C@_1M@ELCKCCJJ@?$AAm?$AAi?$AA?9?$AAn?$AAz?$AA?$AA@ 0000000180031bc8     libucrt:lcidtoname_downlevel.obj
 0002:00005bd8       ??_C@_1M@CBOOLAPA@?$AAm?$AAk?$AA?9?$AAm?$AAk?$AA?$AA@ 0000000180031bd8     libucrt:lcidtoname_downlevel.obj
 0002:00005be8       ??_C@_1M@GPHNBJKN@?$AAm?$AAl?$AA?9?$AAi?$AAn?$AA?$AA@ 0000000180031be8     libucrt:lcidtoname_downlevel.obj
 0002:00005bf8       ??_C@_1M@PABJILIG@?$AAm?$AAn?$AA?9?$AAm?$AAn?$AA?$AA@ 0000000180031bf8     libucrt:lcidtoname_downlevel.obj
 0002:00005c08       ??_C@_1M@FGBKKIPG@?$AAm?$AAr?$AA?9?$AAi?$AAn?$AA?$AA@ 0000000180031c08     libucrt:lcidtoname_downlevel.obj
 0002:00005c18       ??_C@_1M@NDBPDDAL@?$AAm?$AAs?$AA?9?$AAb?$AAn?$AA?$AA@ 0000000180031c18     libucrt:lcidtoname_downlevel.obj
 0002:00005c28       ??_C@_1M@OPIHOOPI@?$AAm?$AAs?$AA?9?$AAm?$AAy?$AA?$AA@ 0000000180031c28     libucrt:lcidtoname_downlevel.obj
 0002:00005c38       ??_C@_1M@PPDBCNFM@?$AAm?$AAt?$AA?9?$AAm?$AAt?$AA?$AA@ 0000000180031c38     libucrt:lcidtoname_downlevel.obj
 0002:00005c48       ??_C@_1M@KDJDKMDD@?$AAn?$AAb?$AA?9?$AAn?$AAo?$AA?$AA@ 0000000180031c48     libucrt:lcidtoname_downlevel.obj
 0002:00005c58       ??_C@_1M@KFCFLMJP@?$AAn?$AAl?$AA?9?$AAb?$AAe?$AA?$AA@ 0000000180031c58     libucrt:lcidtoname_downlevel.obj
 0002:00005c68       ??_C@_1M@KPOPDDGO@?$AAn?$AAl?$AA?9?$AAn?$AAl?$AA?$AA@ 0000000180031c68     libucrt:lcidtoname_downlevel.obj
 0002:00005c78       ??_C@_1M@LJKPEMLN@?$AAn?$AAn?$AA?9?$AAn?$AAo?$AA?$AA@ 0000000180031c78     libucrt:lcidtoname_downlevel.obj
 0002:00005c88       ??_C@_1M@BDGHHBFL@?$AAn?$AAs?$AA?9?$AAz?$AAa?$AA?$AA@ 0000000180031c88     libucrt:lcidtoname_downlevel.obj
 0002:00005c98       ??_C@_1M@IDEHOAP@?$AAp?$AAa?$AA?9?$AAi?$AAn?$AA?$AA@ 0000000180031c98     libucrt:lcidtoname_downlevel.obj
 0002:00005ca8       ??_C@_1M@HDBKGOGH@?$AAp?$AAl?$AA?9?$AAp?$AAl?$AA?$AA@ 0000000180031ca8     libucrt:lcidtoname_downlevel.obj
 0002:00005cb8       ??_C@_1M@LJLLCMEH@?$AAp?$AAt?$AA?9?$AAb?$AAr?$AA?$AA@ 0000000180031cb8     libucrt:lcidtoname_downlevel.obj
 0002:00005cc8       ??_C@_1M@NCMONAAL@?$AAp?$AAt?$AA?9?$AAp?$AAt?$AA?$AA@ 0000000180031cc8     libucrt:lcidtoname_downlevel.obj
 0002:00005cd8       ??_C@_1O@EAKMAJDN@?$AAq?$AAu?$AAz?$AA?9?$AAb?$AAo?$AA?$AA@ 0000000180031cd8     libucrt:lcidtoname_downlevel.obj
 0002:00005ce8       ??_C@_1O@BHHPIGDN@?$AAq?$AAu?$AAz?$AA?9?$AAe?$AAc?$AA?$AA@ 0000000180031ce8     libucrt:lcidtoname_downlevel.obj
 0002:00005cf8       ??_C@_1O@GBAPEKMJ@?$AAq?$AAu?$AAz?$AA?9?$AAp?$AAe?$AA?$AA@ 0000000180031cf8     libucrt:lcidtoname_downlevel.obj
 0002:00005d08       ??_C@_1M@CLGLEFBO@?$AAr?$AAo?$AA?9?$AAr?$AAo?$AA?$AA@ 0000000180031d08     libucrt:lcidtoname_downlevel.obj
 0002:00005d18       ??_C@_1M@CEEDODME@?$AAr?$AAu?$AA?9?$AAr?$AAu?$AA?$AA@ 0000000180031d18     libucrt:lcidtoname_downlevel.obj
 0002:00005d28       ??_C@_1M@HPKKKMPP@?$AAs?$AAa?$AA?9?$AAi?$AAn?$AA?$AA@ 0000000180031d28     libucrt:lcidtoname_downlevel.obj
 0002:00005d38       ??_C@_1M@BKMAIGOJ@?$AAs?$AAe?$AA?9?$AAf?$AAi?$AA?$AA@ 0000000180031d38     libucrt:lcidtoname_downlevel.obj
 0002:00005d48       ??_C@_1M@NDPIFLFI@?$AAs?$AAe?$AA?9?$AAn?$AAo?$AA?$AA@ 0000000180031d48     libucrt:lcidtoname_downlevel.obj
 0002:00005d58       ??_C@_1M@DANKKHJ@?$AAs?$AAe?$AA?9?$AAs?$AAe?$AA?$AA@ 0000000180031d58     libucrt:lcidtoname_downlevel.obj
 0002:00005d68       ??_C@_1M@PNBLONPJ@?$AAs?$AAk?$AA?9?$AAs?$AAk?$AA?$AA@ 0000000180031d68     libucrt:lcidtoname_downlevel.obj
 0002:00005d78       ??_C@_1M@LFMODOAL@?$AAs?$AAl?$AA?9?$AAs?$AAi?$AA?$AA@ 0000000180031d78     libucrt:lcidtoname_downlevel.obj
 0002:00005d88       ??_C@_1O@DFKOMPG@?$AAs?$AAm?$AAa?$AA?9?$AAn?$AAo?$AA?$AA@ 0000000180031d88     libucrt:lcidtoname_downlevel.obj
 0002:00005d98       ??_C@_1O@NDKPBNNH@?$AAs?$AAm?$AAa?$AA?9?$AAs?$AAe?$AA?$AA@ 0000000180031d98     libucrt:lcidtoname_downlevel.obj
 0002:00005da8       ??_C@_1O@PLLKBHAB@?$AAs?$AAm?$AAj?$AA?9?$AAn?$AAo?$AA?$AA@ 0000000180031da8     libucrt:lcidtoname_downlevel.obj
 0002:00005db8       ??_C@_1O@CLEPOGCA@?$AAs?$AAm?$AAj?$AA?9?$AAs?$AAe?$AA?$AA@ 0000000180031db8     libucrt:lcidtoname_downlevel.obj
 0002:00005dc8       ??_C@_1O@DLGJGKMK@?$AAs?$AAm?$AAn?$AA?9?$AAf?$AAi?$AA?$AA@ 0000000180031dc8     libucrt:lcidtoname_downlevel.obj
 0002:00005dd8       ??_C@_1O@OJDJGAJC@?$AAs?$AAm?$AAs?$AA?9?$AAf?$AAi?$AA?$AA@ 0000000180031dd8     libucrt:lcidtoname_downlevel.obj
 0002:00005de8       ??_C@_1M@BOFOGHPB@?$AAs?$AAq?$AA?9?$AAa?$AAl?$AA?$AA@ 0000000180031de8     libucrt:lcidtoname_downlevel.obj
 0002:00005df8       ??_C@_1BG@LJBBIPGB@?$AAs?$AAr?$AA?9?$AAb?$AAa?$AA?9?$AAc?$AAy?$AAr?$AAl?$AA?$AA@ 0000000180031df8     libucrt:lcidtoname_downlevel.obj
 0002:00005e10       ??_C@_1BG@JLBENFOE@?$AAs?$AAr?$AA?9?$AAb?$AAa?$AA?9?$AAl?$AAa?$AAt?$AAn?$AA?$AA@ 0000000180031e10     libucrt:lcidtoname_downlevel.obj
 0002:00005e28       ??_C@_1BG@KODPNHE@?$AAs?$AAr?$AA?9?$AAs?$AAp?$AA?9?$AAc?$AAy?$AAr?$AAl?$AA?$AA@ 0000000180031e28     libucrt:lcidtoname_downlevel.obj
 0002:00005e40       ??_C@_1BG@CIOGKHPB@?$AAs?$AAr?$AA?9?$AAs?$AAp?$AA?9?$AAl?$AAa?$AAt?$AAn?$AA?$AA@ 0000000180031e40     libucrt:lcidtoname_downlevel.obj
 0002:00005e58       ??_C@_1M@NGFJLMAC@?$AAs?$AAv?$AA?9?$AAf?$AAi?$AA?$AA@ 0000000180031e58     libucrt:lcidtoname_downlevel.obj
 0002:00005e68       ??_C@_1M@MPJEJAJC@?$AAs?$AAv?$AA?9?$AAs?$AAe?$AA?$AA@ 0000000180031e68     libucrt:lcidtoname_downlevel.obj
 0002:00005e78       ??_C@_1M@MPNDHLFK@?$AAs?$AAw?$AA?9?$AAk?$AAe?$AA?$AA@ 0000000180031e78     libucrt:lcidtoname_downlevel.obj
 0002:00005e88       ??_C@_1O@KOHBJJI@?$AAs?$AAy?$AAr?$AA?9?$AAs?$AAy?$AA?$AA@ 0000000180031e88     libucrt:lcidtoname_downlevel.obj
 0002:00005e98       ??_C@_1M@LDCEFHA@?$AAt?$AAa?$AA?9?$AAi?$AAn?$AA?$AA@ 0000000180031e98     libucrt:lcidtoname_downlevel.obj
 0002:00005ea8       ??_C@_1M@CNJOFAK@?$AAt?$AAe?$AA?9?$AAi?$AAn?$AA?$AA@ 0000000180031ea8     libucrt:lcidtoname_downlevel.obj
 0002:00005eb8       ??_C@_1M@GNAECACD@?$AAt?$AAh?$AA?9?$AAt?$AAh?$AA?$AA@ 0000000180031eb8     libucrt:lcidtoname_downlevel.obj
 0002:00005ec8       ??_C@_1M@CHBIHOJO@?$AAt?$AAn?$AA?9?$AAz?$AAa?$AA?$AA@ 0000000180031ec8     libucrt:lcidtoname_downlevel.obj
 0002:00005ed8       ??_C@_1M@GCCMIGPJ@?$AAt?$AAr?$AA?9?$AAt?$AAr?$AA?$AA@ 0000000180031ed8     libucrt:lcidtoname_downlevel.obj
 0002:00005ee8       ??_C@_1M@CELMCNBK@?$AAt?$AAt?$AA?9?$AAr?$AAu?$AA?$AA@ 0000000180031ee8     libucrt:lcidtoname_downlevel.obj
 0002:00005ef8       ??_C@_1M@KLMCELGA@?$AAu?$AAk?$AA?9?$AAu?$AAa?$AA?$AA@ 0000000180031ef8     libucrt:lcidtoname_downlevel.obj
 0002:00005f08       ??_C@_1M@EPAJJAJF@?$AAu?$AAr?$AA?9?$AAp?$AAk?$AA?$AA@ 0000000180031f08     libucrt:lcidtoname_downlevel.obj
 0002:00005f18       ??_C@_1BG@GEGPMCDJ@?$AAu?$AAz?$AA?9?$AAu?$AAz?$AA?9?$AAc?$AAy?$AAr?$AAl?$AA?$AA@ 0000000180031f18     libucrt:lcidtoname_downlevel.obj
 0002:00005f30       ??_C@_1BG@EGGKJILM@?$AAu?$AAz?$AA?9?$AAu?$AAz?$AA?9?$AAl?$AAa?$AAt?$AAn?$AA?$AA@ 0000000180031f30     libucrt:lcidtoname_downlevel.obj
 0002:00005f48       ??_C@_1M@GFOCLFF@?$AAv?$AAi?$AA?9?$AAv?$AAn?$AA?$AA@ 0000000180031f48     libucrt:lcidtoname_downlevel.obj
 0002:00005f58       ??_C@_1M@CPAMEDFI@?$AAx?$AAh?$AA?9?$AAz?$AAa?$AA?$AA@ 0000000180031f58     libucrt:lcidtoname_downlevel.obj
 0002:00005f68       ??_C@_1O@EBKIFIGN@?$AAz?$AAh?$AA?9?$AAc?$AAh?$AAs?$AA?$AA@ 0000000180031f68     libucrt:lcidtoname_downlevel.obj
 0002:00005f78       ??_C@_1O@NMHPGANE@?$AAz?$AAh?$AA?9?$AAc?$AAh?$AAt?$AA?$AA@ 0000000180031f78     libucrt:lcidtoname_downlevel.obj
 0002:00005f88       ??_C@_1M@LPINJOMC@?$AAz?$AAh?$AA?9?$AAc?$AAn?$AA?$AA@ 0000000180031f88     libucrt:lcidtoname_downlevel.obj
 0002:00005f98       ??_C@_1M@OCJEJODD@?$AAz?$AAh?$AA?9?$AAh?$AAk?$AA?$AA@ 0000000180031f98     libucrt:lcidtoname_downlevel.obj
 0002:00005fa8       ??_C@_1M@DNDLJINH@?$AAz?$AAh?$AA?9?$AAm?$AAo?$AA?$AA@ 0000000180031fa8     libucrt:lcidtoname_downlevel.obj
 0002:00005fb8       ??_C@_1M@MBFDNDND@?$AAz?$AAh?$AA?9?$AAs?$AAg?$AA?$AA@ 0000000180031fb8     libucrt:lcidtoname_downlevel.obj
 0002:00005fc8       ??_C@_1M@IMEPLEPE@?$AAz?$AAh?$AA?9?$AAt?$AAw?$AA?$AA@ 0000000180031fc8     libucrt:lcidtoname_downlevel.obj
 0002:00005fd8       ??_C@_1M@BBGHNHJP@?$AAz?$AAu?$AA?9?$AAz?$AAa?$AA?$AA@ 0000000180031fd8     libucrt:lcidtoname_downlevel.obj
 0002:00005fe4       ??_C@_00CNPNBAHC@?$AA@     0000000180031fe4     libucrt:mbrtowc.obj
 0002:00005ff0       ?large_power_data@?1??multiply_by_power_of_ten@__crt_strtox@@YA_NAEAUbig_integer@2@I@Z@4QBIB 0000000180031ff0     libucrt:cfout.obj
 0002:00006900       ?large_power_indices@?1??multiply_by_power_of_ten@__crt_strtox@@YA_NAEAUbig_integer@2@I@Z@4QBUunpack_index@?1??12@YA_N0I@Z@B 0000000180032900     libucrt:cfout.obj
 0002:00006998       ?small_powers_of_ten@?1??multiply_by_power_of_ten@__crt_strtox@@YA_NAEAUbig_integer@2@I@Z@4QBIB 0000000180032998     libucrt:cfout.obj
 0002:000069bc       ??_C@_01GBGANLPD@0?$AA@    00000001800329bc     libucrt:cfout.obj
 0002:000069c0       ??_C@_05DNEBIAHO@1?$CDINF?$AA@ 00000001800329c0     libucrt:cfout.obj
 0002:000069c8       ??_C@_06IMKFLFPG@1?$CDQNAN?$AA@ 00000001800329c8     libucrt:cfout.obj
 0002:000069d0       ??_C@_06PGGFOGJG@1?$CDSNAN?$AA@ 00000001800329d0     libucrt:cfout.obj
 0002:000069d8       ??_C@_05PHHOCPM@1?$CDIND?$AA@ 00000001800329d8     libucrt:cfout.obj
 0002:000069e0       __real@3ff0000000000000    00000001800329e0     libucrt:ceil.obj
 0002:00006c40       ??_C@_1BA@BALFACEM@?$AAC?$AAO?$AAN?$AAO?$AAU?$AAT?$AA$?$AA?$AA@ 0000000180032c40     libucrt:initcon.obj
 0002:00006c50       __log10_256_lead           0000000180032c50     libucrt:log10_256_lead_tail_table.obj
 0002:00007460       __log10_256_tail           0000000180033460     libucrt:log10_256_lead_tail_table.obj
 0002:00007c70       __log_F_inv_qword          0000000180033c70     libucrt:log_f_inv_qword_table.obj
 0002:00008480       ??_C@_05HGHHAHAP@log10?$AA@ 0000000180034480     libucrt:log_special.obj
 0002:000084a0       ??_C@_1BK@DBDEIDLH@?$AAK?$AAE?$AAR?$AAN?$AAE?$AAL?$AA3?$AA2?$AA?4?$AAD?$AAL?$AAL@ 00000001800344a0     DelayImp:delayhlp.obj
 0002:000084c0       ??_C@_0BI@OMNLIJDB@AcquireSRWLockExclusive@ 00000001800344c0     DelayImp:delayhlp.obj
 0002:000084d8       ??_C@_0BI@HMIEPCNJ@ReleaseSRWLockExclusive@ 00000001800344d8     DelayImp:delayhlp.obj
 0002:000084f0       __pfnDliFailureHook2       00000001800344f0     DelayImp:delayhk1.obj
 0002:00008500       _load_config_used          0000000180034500     LIBCMT:loadcfg.obj
 0002:00008610       ??_C@_1HE@MBPFAIKI@?$AAc?$AA?3?$AA?2?$AAw?$AAo?$AAr?$AAk?$AAs?$AAp?$AAa?$AAc?$AAe?$AA?2?$AAy?$AAs@ 0000000180034610     binding.obj
 0002:00008688       ??_C@_1BO@OPFMAOCA@?$AAl?$AAe?$AAn?$AA?5?$AA?$DM?$AA?$DN?$AA?5?$AAI?$AAN?$AAT?$AA_?$AAM?$AAA?$AAX@ 0000000180034688     binding.obj
 0002:000086a8       ??_C@_1BE@CKDJNAPC@?$AAs?$AAt?$AAr?$AA_?$AA?5?$AA?$CB?$AA?$DN?$AA?5?$AA0@ 00000001800346a8     binding.obj
 0002:000086bc       ??_C@_04IHONJAFL@make@     00000001800346bc     binding.obj
 0002:000086c8       ??_C@_07ONPFMHHK@convert@  00000001800346c8     binding.obj
 0002:000086d0       ??_C@_06HIMGHAFD@EINVAL@   00000001800346d0     binding.obj
 0002:000086d8       ??_C@_06MNLNBHMB@EILSEQ@   00000001800346d8     binding.obj
 0002:000086e0       ??_C@_05DLCHNBFO@E2BIG@    00000001800346e0     binding.obj
 0002:000086f0       ??_C@_0EF@GEDFBIEJ@c?3?2workspace?2ysp?2stockweb?2stock@ 00000001800346f0     binding.obj
 0002:00008738       ??_C@_08NJCMPDLN@libiconv@ 0000000180034738     binding.obj
 0002:0009cba8       __pfnDliNotifyHook2        00000001800c8ba8     win_delay_load_hook.obj
 0002:000e5680       ??_C@_00CNPNBAHC@@         0000000180111680     localcharset.obj
 0002:000e5688       ??_C@_08JDDNMFDB@node?4exe@ 0000000180111688     win_delay_load_hook.obj
 0002:000e5710       ??_R4exception@std@@6B@    0000000180111710     LIBCMT:throw_bad_alloc.obj
 0002:000e5738       ??_R3exception@std@@8      0000000180111738     LIBCMT:throw_bad_alloc.obj
 0002:000e5750       ??_R2exception@std@@8      0000000180111750     LIBCMT:throw_bad_alloc.obj
 0002:000e5760       ??_R1A@?0A@EA@exception@std@@8 0000000180111760     LIBCMT:throw_bad_alloc.obj
 0002:000e5788       ??_R4bad_alloc@std@@6B@    0000000180111788     LIBCMT:throw_bad_alloc.obj
 0002:000e57b0       ??_R3bad_alloc@std@@8      00000001801117b0     LIBCMT:throw_bad_alloc.obj
 0002:000e57c8       ??_R2bad_alloc@std@@8      00000001801117c8     LIBCMT:throw_bad_alloc.obj
 0002:000e57e0       ??_R1A@?0A@EA@bad_alloc@std@@8 00000001801117e0     LIBCMT:throw_bad_alloc.obj
 0002:000e5808       ??_R4bad_array_new_length@std@@6B@ 0000000180111808     LIBCMT:throw_bad_alloc.obj
 0002:000e5830       ??_R3bad_array_new_length@std@@8 0000000180111830     LIBCMT:throw_bad_alloc.obj
 0002:000e5848       ??_R2bad_array_new_length@std@@8 0000000180111848     LIBCMT:throw_bad_alloc.obj
 0002:000e5868       ??_R1A@?0A@EA@bad_array_new_length@std@@8 0000000180111868     LIBCMT:throw_bad_alloc.obj
 0002:000e5890       ??_R4type_info@@6B@        0000000180111890     LIBCMT:std_type_info_static.obj
 0002:000e58b8       ??_R3type_info@@8          00000001801118b8     LIBCMT:std_type_info_static.obj
 0002:000e58d0       ??_R2type_info@@8          00000001801118d0     LIBCMT:std_type_info_static.obj
 0002:000e58e0       ??_R1A@?0A@EA@type_info@@8 00000001801118e0     LIBCMT:std_type_info_static.obj
 0002:000e5cf8       __rtc_iaa                  0000000180111cf8     LIBCMT:initsect.obj
 0002:000e5d00       __rtc_izz                  0000000180111d00     LIBCMT:initsect.obj
 0002:000e5d08       __rtc_taa                  0000000180111d08     LIBCMT:initsect.obj
 0002:000e5d10       __rtc_tzz                  0000000180111d10     LIBCMT:initsect.obj
 0002:000e7260       _TI2?AVbad_alloc@std@@     0000000180113260     LIBCMT:throw_bad_alloc.obj
 0002:000e7280       _CTA2?AVbad_alloc@std@@    0000000180113280     LIBCMT:throw_bad_alloc.obj
 0002:000e7298       _CT??_R0?AVbad_alloc@std@@@8??0bad_alloc@std@@QEAA@AEBV01@@Z24 0000000180113298     LIBCMT:throw_bad_alloc.obj
 0002:000e72c0       _CT??_R0?AVexception@std@@@8??0exception@std@@QEAA@AEBV01@@Z24 00000001801132c0     LIBCMT:throw_bad_alloc.obj
 0002:000e72e8       _TI3?AVbad_array_new_length@std@@ 00000001801132e8     LIBCMT:throw_bad_alloc.obj
 0002:000e7308       _CTA3?AVbad_array_new_length@std@@ 0000000180113308     LIBCMT:throw_bad_alloc.obj
 0002:000e7328       _CT??_R0?AVbad_array_new_length@std@@@8??0bad_array_new_length@std@@QEAA@AEBV01@@Z24 0000000180113328     LIBCMT:throw_bad_alloc.obj
 0002:000e734c       __DELAY_IMPORT_DESCRIPTOR_node_exe 000000018011334c     node:node.exe
 0002:000e736c       __NULL_DELAY_IMPORT_DESCRIPTOR 000000018011336c     node:node.exe
 0002:000e74b8       \177node_NULL_THUNK_DATA_DLN 00000001801134b8     node:node.exe
 0002:000e7f48       \177node_NULL_THUNK_DATA_DLB 0000000180113f48     node:node.exe
 0002:000e80c4       __IMPORT_DESCRIPTOR_KERNEL32 00000001801140c4     kernel32:KERNEL32.dll
 0002:000e80d8       __NULL_IMPORT_DESCRIPTOR   00000001801140d8     kernel32:KERNEL32.dll
 0003:00000000       __scrt_native_dllmain_reason 0000000180115000     LIBCMT:utility.obj
 0003:00000008       __security_cookie_complement 0000000180115008     LIBCMT:gs_cookie.obj
 0003:00000010       __security_cookie          0000000180115010     LIBCMT:gs_cookie.obj
 0003:00000018       __isa_available            0000000180115018     LIBCMT:cpu_disp.obj
 0003:0000001c       __isa_enabled              000000018011501c     LIBCMT:cpu_disp.obj
 0003:00000020       __memcpy_nt_iters          0000000180115020     LIBCMT:cpu_disp.obj
 0003:00000028       __memset_nt_iters          0000000180115028     LIBCMT:cpu_disp.obj
 0003:00000048       __abort_behavior           0000000180115048     libucrt:abort.obj
 0003:00000060       _iob                       0000000180115060     libucrt:_file.obj
 0003:00000170       __acrt_initial_locale_data 0000000180115170     libucrt:nlsdata.obj
 0003:000002c8       __acrt_initial_locale_pointers 00000001801152c8     libucrt:nlsdata.obj
 0003:000002d8       __acrt_wide_c_locale_string 00000001801152d8     libucrt:nlsdata.obj
 0003:000005f0       __acrt_initial_multibyte_data 00000001801155f0     libucrt:mbctype.obj
 0003:00000820       __badioinfo                0000000180115820     libucrt:ioinit.obj
 0003:00000868       _pwctype                   0000000180115868     libucrt:ctype.obj
 0003:00000870       __globallocalestatus       0000000180115870     libucrt:glstatus.obj
 0003:00000880       __acrt_lconv_c             0000000180115880     libucrt:localeconv.obj
 0003:00000918       __acrt_lconv_static_decimal 0000000180115918     libucrt:localeconv.obj
 0003:0000091c       __acrt_lconv_static_W_decimal 000000018011591c     libucrt:localeconv.obj
 0003:00000920       _lookuptrailbytes          0000000180115920     libucrt:read.obj
 0003:00000a40       _fltused                   0000000180115a40     LIBCMT:fltused.obj
 0003:00000a90       ??_R0?AVbad_alloc@std@@@8  0000000180115a90     LIBCMT:throw_bad_alloc.obj
 0003:00000ab8       ??_R0?AVexception@std@@@8  0000000180115ab8     LIBCMT:throw_bad_alloc.obj
 0003:00000ae0       ??_R0?AVbad_array_new_length@std@@@8 0000000180115ae0     LIBCMT:throw_bad_alloc.obj
 0003:00000b10       ??_R0?AVtype_info@@@8      0000000180115b10     LIBCMT:std_type_info_static.obj
 0003:00000b30       __imp_?Value@External@v8@@QEBAPEAXXZ 0000000180115b30     node:node.exe
 0003:00000b38       __imp_?New@External@v8@@SA?AV?$Local@VExternal@v8@@@2@PEAVIsolate@2@PEAX@Z 0000000180115b38     node:node.exe
 0003:00000b40       __imp_?NewFromUnsigned@Integer@v8@@SA?AV?$Local@VInteger@v8@@@2@PEAVIsolate@2@I@Z 0000000180115b40     node:node.exe
 0003:00000b48       __imp_?New@Integer@v8@@SA?AV?$Local@VInteger@v8@@@2@PEAVIsolate@2@H@Z 0000000180115b48     node:node.exe
 0003:00000b50       __imp_?GetCurrentContext@Isolate@v8@@QEAA?AV?$Local@VContext@v8@@@2@XZ 0000000180115b50     node:node.exe
 0003:00000b58       __imp_?GetCurrent@Isolate@v8@@SAPEAV12@XZ 0000000180115b58     node:node.exe
 0003:00000b60       __imp_?CreateHandle@HandleScope@v8@@KAPEAPEAVObject@internal@2@PEAVIsolate@42@PEAV342@@Z 0000000180115b60     node:node.exe
 0003:00000b68       __imp_?CreateHandle@HandleScope@v8@@CAPEAPEAVObject@internal@2@PEAVHeapObject@42@PEAV342@@Z 0000000180115b68     node:node.exe
 0003:00000b70       __imp_??1HandleScope@v8@@QEAA@XZ 0000000180115b70     node:node.exe
 0003:00000b78       __imp_??0HandleScope@v8@@QEAA@PEAVIsolate@1@@Z 0000000180115b78     node:node.exe
 0003:00000b80       __imp_?SetClassName@FunctionTemplate@v8@@QEAAXV?$Local@VString@v8@@@2@@Z 0000000180115b80     node:node.exe
 0003:00000b88       __imp_?GetFunction@FunctionTemplate@v8@@QEAA?AV?$MaybeLocal@VFunction@v8@@@2@V?$Local@VContext@v8@@@2@@Z 0000000180115b88     node:node.exe
 0003:00000b90       __imp_?New@FunctionTemplate@v8@@SA?AV?$Local@VFunctionTemplate@v8@@@2@PEAVIsolate@2@P6AXAEBV?$FunctionCallbackInfo@VValue@v8@@@2@@ZV?$Local@VValue@v8@@@2@V?$Local@VSignature@v8@@@2@HW4ConstructorBehavior@2@W4SideEffectType@2@@Z 0000000180115b90     node:node.exe
 0003:00000b98       __imp_?ToLocalEmpty@V8@v8@@CAXXZ 0000000180115b98     node:node.exe
 0003:00000ba0       __imp_?MakeWeak@V8@v8@@CAXPEAPEAVObject@internal@2@PEAXP6AXAEBV?$WeakCallbackInfo@X@2@@ZW4WeakCallbackType@2@@Z 0000000180115ba0     node:node.exe
 0003:00000ba8       __imp_?DisposeGlobal@V8@v8@@CAXPEAPEAVObject@internal@2@@Z 0000000180115ba8     node:node.exe
 0003:00000bb0       __imp_?GlobalizeReference@V8@v8@@CAPEAPEAVObject@internal@2@PEAVIsolate@42@PEAPEAV342@@Z 0000000180115bb0     node:node.exe
 0003:00000bb8       __imp_?Uint32Value@Value@v8@@QEBA?AV?$Maybe@I@2@V?$Local@VContext@v8@@@2@@Z 0000000180115bb8     node:node.exe
 0003:00000bc0       __imp_?BooleanValue@Value@v8@@QEBA?AV?$Maybe@_N@2@V?$Local@VContext@v8@@@2@@Z 0000000180115bc0     node:node.exe
 0003:00000bc8       __imp_?ToInteger@Value@v8@@QEBA?AV?$MaybeLocal@VInteger@v8@@@2@V?$Local@VContext@v8@@@2@@Z 0000000180115bc8     node:node.exe
 0003:00000bd0       __imp_?ToString@Value@v8@@QEBA?AV?$MaybeLocal@VString@v8@@@2@V?$Local@VContext@v8@@@2@@Z 0000000180115bd0     node:node.exe
 0003:00000bd8       __imp_?Escape@EscapableHandleScope@v8@@AEAAPEAPEAVObject@internal@2@PEAPEAV342@@Z 0000000180115bd8     node:node.exe
 0003:00000be0       __imp_??0EscapableHandleScope@v8@@QEAA@PEAVIsolate@1@@Z 0000000180115be0     node:node.exe
 0003:00000be8       __imp_?NewFromUtf8@String@v8@@SA?AV?$MaybeLocal@VString@v8@@@2@PEAVIsolate@2@PEBDW4NewStringType@2@H@Z 0000000180115be8     node:node.exe
 0003:00000bf0       __imp_?WriteUtf8@String@v8@@QEBAHPEADHPEAHH@Z 0000000180115bf0     node:node.exe
 0003:00000bf8       __imp_?Length@String@v8@@QEBAHXZ 0000000180115bf8     node:node.exe
 0003:00000c00       __imp_?SlowGetAlignedPointerFromInternalField@Object@v8@@AEAAPEAXH@Z 0000000180115c00     node:node.exe
 0003:00000c08       __imp_?SlowGetInternalField@Object@v8@@AEAA?AV?$Local@VValue@v8@@@2@H@Z 0000000180115c08     node:node.exe
 0003:00000c10       __imp_?SetAlignedPointerInInternalField@Object@v8@@QEAAXHPEAX@Z 0000000180115c10     node:node.exe
 0003:00000c18       __imp_?SetInternalField@Object@v8@@QEAAXHV?$Local@VValue@v8@@@2@@Z 0000000180115c18     node:node.exe
 0003:00000c20       __imp_?Set@Object@v8@@QEAA?AV?$Maybe@_N@2@V?$Local@VContext@v8@@@2@V?$Local@VValue@v8@@@2@1@Z 0000000180115c20     node:node.exe
 0003:00000c28       __imp_?Set@Object@v8@@QEAA?AV?$Maybe@_N@2@V?$Local@VContext@v8@@@2@IV?$Local@VValue@v8@@@2@@Z 0000000180115c28     node:node.exe
 0003:00000c30       __imp_?SetInternalFieldCount@ObjectTemplate@v8@@QEAAXH@Z 0000000180115c30     node:node.exe
 0003:00000c38       __imp_?NewInstance@ObjectTemplate@v8@@QEAA?AV?$MaybeLocal@VObject@v8@@@2@V?$Local@VContext@v8@@@2@@Z 0000000180115c38     node:node.exe
 0003:00000c40       __imp_?New@ObjectTemplate@v8@@SA?AV?$Local@VObjectTemplate@v8@@@2@PEAVIsolate@2@V?$Local@VFunctionTemplate@v8@@@2@@Z 0000000180115c40     node:node.exe
 0003:00000c48       __imp_node_module_register 0000000180115c48     node:node.exe
 0003:00000c50       __imp_?Data@Buffer@node@@YAPEADV?$Local@VObject@v8@@@v8@@@Z 0000000180115c50     node:node.exe
 0003:00000c58       \177node_NULL_THUNK_DATA_DLA 0000000180115c58     node:node.exe
 0003:00000c60       __hmod__node_exe           0000000180115c60     node:node.exe
 0003:00000c68       __scrt_current_native_startup_state 0000000180115c68     LIBCMT:utility.obj
 0003:00000c70       __scrt_native_startup_lock 0000000180115c70     LIBCMT:utility.obj
 0003:00001230       __favor                    0000000180116230     LIBCMT:cpu_disp.obj
 0003:00001234       __scrt_debugger_hook_flag  0000000180116234     LIBCMT:utility_desktop.obj
 0003:00001240       ?__type_info_root_node@@3U__type_info_node@@A 0000000180116240     LIBCMT:tncleanup.obj
 0003:00001250       ?_OptionsStorage@?1??__local_stdio_printf_options@@9@4_KA 0000000180116250     LIBCMT:default_local_stdio_options.obj
 0003:00001258       ?_OptionsStorage@?1??__local_stdio_scanf_options@@9@4_KA 0000000180116258     LIBCMT:default_local_stdio_options.obj
 0003:00001350       __pPurecall                0000000180116350     libvcruntime:purevirt_data.obj
 0003:00001358       ?__WinRTOutOfMemoryExceptionCallback@@3P6APEAXXZEA 0000000180116358     libvcruntime:ehhelpers.obj
 0003:00001360       ?pArgList@UnDecorator@@0PEAVReplicator@@EA 0000000180116360     libvcruntime:undname.obj
 0003:00001368       ?pZNameList@UnDecorator@@0PEAVReplicator@@EA 0000000180116368     libvcruntime:undname.obj
 0003:00001370       ?pTemplateArgList@UnDecorator@@0PEAVReplicator@@EA 0000000180116370     libvcruntime:undname.obj
 0003:00001378       ?gName@UnDecorator@@0PEBDEB 0000000180116378     libvcruntime:undname.obj
 0003:00001380       ?name@UnDecorator@@0PEBDEB 0000000180116380     libvcruntime:undname.obj
 0003:00001388       ?disableFlags@UnDecorator@@0KA 0000000180116388     libvcruntime:undname.obj
 0003:0000138c       ?fExplicitTemplateParams@UnDecorator@@0_NA 000000018011638c     libvcruntime:undname.obj
 0003:0000138d       ?fGetTemplateArgumentList@UnDecorator@@0_NA 000000018011638d     libvcruntime:undname.obj
 0003:00001390       ?m_pGetParameter@UnDecorator@@0P6APEADJ@ZEA 0000000180116390     libvcruntime:undname.obj
 0003:00001398       ?m_CHPENameOffset@UnDecorator@@0KA 0000000180116398     libvcruntime:undname.obj
 0003:0000139c       ?m_recursionLevel@UnDecorator@@0KA 000000018011639c     libvcruntime:undname.obj
 0003:000013e0       ?c_exit_complete@?1???R<lambda_6e4b09c48022b2350581041d5f6b0c4c>@@QEBA@XZ@4_NA 00000001801163e0     libucrt:exit.obj
 0003:000014f8       _environ_table             00000001801164f8     libucrt:environment_initialization.obj
 0003:00001500       _wenviron_table            0000000180116500     libucrt:environment_initialization.obj
 0003:00001508       __dcrt_initial_wide_environment 0000000180116508     libucrt:environment_initialization.obj
 0003:00001510       __dcrt_initial_narrow_environment 0000000180116510     libucrt:environment_initialization.obj
 0003:00001518       __acrt_atexit_table        0000000180116518     libucrt:onexit.obj
 0003:00001530       __acrt_at_quick_exit_table 0000000180116530     libucrt:onexit.obj
 0003:00001558       _nstream                   0000000180116558     libucrt:_file.obj
 0003:00001560       __piob                     0000000180116560     libucrt:_file.obj
 0003:00001568       _cflush                    0000000180116568     libucrt:_file.obj
 0003:00001590       __acrt_locale_changed_data 0000000180116590     libucrt:wsetlocale.obj
 0003:00001598       __acrt_current_locale_data 0000000180116598     libucrt:nlsdata.obj
 0003:000017e0       _mbctype                   00000001801167e0     libucrt:mbctype.obj
 0003:000017e8       _mbcasemap                 00000001801167e8     libucrt:mbctype.obj
 0003:000017f0       __acrt_current_multibyte_data 00000001801167f0     libucrt:mbctype.obj
 0003:00001800       _pgmptr                    0000000180116800     libucrt:argv_data.obj
 0003:00001808       __argc                     0000000180116808     libucrt:argv_data.obj
 0003:00001810       __argv                     0000000180116810     libucrt:argv_data.obj
 0003:00001818       __wargv                    0000000180116818     libucrt:argv_data.obj
 0003:00001820       _acmdln                    0000000180116820     libucrt:argv_data.obj
 0003:00001828       _wcmdln                    0000000180116828     libucrt:argv_data.obj
 0003:000019e0       __acrt_heap                00000001801169e0     libucrt:heap_handle.obj
 0003:000019f0       __pioinfo                  00000001801169f0     libucrt:ioinit.obj
 0003:00001df0       _nhandle                   0000000180116df0     libucrt:ioinit.obj
 0003:00001e00       __acrt_stdout_buffer       0000000180116e00     libucrt:_sftbuf.obj
 0003:00001e08       __acrt_stderr_buffer       0000000180116e08     libucrt:_sftbuf.obj
 0003:00001e24       __acrt_lconv_static_null   0000000180116e24     libucrt:localeconv.obj
 0003:00001e28       __acrt_lconv_static_W_null 0000000180116e28     libucrt:localeconv.obj
 0003:00001e38       __fma3_is_available        0000000180116e38     libucrt:fma3_available.obj
 0003:00001e3c       __use_fma3_lib             0000000180116e3c     libucrt:fma3_available.obj
 0003:00001e40       ?DloadKernel32@@3PEAUHINSTANCE__@@EA 0000000180116e40     DelayImp:delayhlp.obj
 0003:00001e48       ?DloadAcquireSRWLockExclusive@@3P6AXPEA_K@ZEA 0000000180116e48     DelayImp:delayhlp.obj
 0003:00001e50       ?DloadReleaseSRWLockExclusive@@3P6AXPEA_K@ZEA 0000000180116e50     DelayImp:delayhlp.obj
 0003:00001e58       ?DloadSrwLock@@3_KA        0000000180116e58     DelayImp:delayhlp.obj
 0003:00001e60       ?DloadSectionLockCount@@3KA 0000000180116e60     DelayImp:delayhlp.obj
 0003:00001e64       ?DloadSectionOldProtection@@3KA 0000000180116e64     DelayImp:delayhlp.obj
 0003:00001e68       ?DloadSectionCommitPermanent@@3KA 0000000180116e68     DelayImp:delayhlp.obj
 0003:00001e70       ?object_template@Iconv@?A0xd3ef0bfb@@2V?$Persistent@VObjectTemplate@v8@@V?$NonCopyablePersistentTraits@VObjectTemplate@v8@@@2@@Nan@@A 0000000180116e70     binding.obj
 0003:00001e78       __dyn_tls_init_callback    0000000180116e78     <common>
 0003:00001e80       __scrt_ucrt_dll_is_in_use  0000000180116e80     <common>

 entry point at        0001:00018560

 Static symbols

 0000:ffee3000       .debug$S                   0000000180000000     kernel32:KERNEL32.dll
 0000:ffee3000       .debug$S                   0000000180000000     kernel32:KERNEL32.dll
 0000:ffee3000       .debug$S                   0000000180000000     node:node.exe
 0000:ffee3000       .debug$S                   0000000180000000     node:node.exe
 0000:ffee3000       .debug$S                   0000000180000000     kernel32:KERNEL32.dll
 0000:ffee3000       .debug$S                   0000000180000000     node:node.exe
 0000:ffee3000       .debug$S                   0000000180000000     kernel32:KERNEL32.dll
 0000:ffee3000       .debug$S                   0000000180000000     node:node.exe
 0000:ffee3000       .debug$S                   0000000180000000     kernel32:KERNEL32.dll
 0000:ffee3000       .debug$S                   0000000180000000     node:node.exe
 0000:ffee3000       .debug$S                   0000000180000000     kernel32:KERNEL32.dll
 0000:ffee3000       .debug$S                   0000000180000000     node:node.exe
 0000:ffee3000       .debug$S                   0000000180000000     kernel32:KERNEL32.dll
 0000:ffee3000       .debug$S                   0000000180000000     node:node.exe
 0000:ffee3000       .debug$S                   0000000180000000     kernel32:KERNEL32.dll
 0000:ffee3000       .debug$S                   0000000180000000     node:node.exe
 0000:ffee3000       .debug$S                   0000000180000000     kernel32:KERNEL32.dll
 0000:ffee3000       .debug$S                   0000000180000000     node:node.exe
 0000:ffee3000       .debug$S                   0000000180000000     kernel32:KERNEL32.dll
 0000:ffee3000       .debug$S                   0000000180000000     node:node.exe
 0000:ffee3000       .debug$S                   0000000180000000     kernel32:KERNEL32.dll
 0000:ffee3000       .debug$S                   0000000180000000     node:node.exe
 0000:ffee3000       .debug$S                   0000000180000000     kernel32:KERNEL32.dll
 0000:ffee3000       .debug$S                   0000000180000000     node:node.exe
 0000:ffee3000       .debug$S                   0000000180000000     kernel32:KERNEL32.dll
 0000:ffee3000       .debug$S                   0000000180000000     node:node.exe
 0000:ffee3000       .debug$S                   0000000180000000     kernel32:KERNEL32.dll
 0000:ffee3000       .debug$S                   0000000180000000     node:node.exe
 0000:ffee3000       .debug$S                   0000000180000000     kernel32:KERNEL32.dll
 0000:ffee3000       .debug$S                   0000000180000000     node:node.exe
 0000:ffee3000       .debug$S                   0000000180000000     kernel32:KERNEL32.dll
 0000:ffee3000       .debug$S                   0000000180000000     node:node.exe
 0000:ffee3000       .debug$S                   0000000180000000     kernel32:KERNEL32.dll
 0000:ffee3000       .debug$S                   0000000180000000     node:node.exe
 0000:ffee3000       .debug$S                   0000000180000000     kernel32:KERNEL32.dll
 0000:ffee3000       .debug$S                   0000000180000000     node:node.exe
 0000:ffee3000       .debug$S                   0000000180000000     kernel32:KERNEL32.dll
 0000:ffee3000       .debug$S                   0000000180000000     node:node.exe
 0000:ffee3000       .debug$S                   0000000180000000     node:node.exe
 0000:ffee3000       .debug$S                   0000000180000000     node:node.exe
 0000:ffee3000       .debug$S                   0000000180000000     node:node.exe
 0000:ffee3000       .debug$S                   0000000180000000     node:node.exe
 0000:ffee3000       .debug$S                   0000000180000000     node:node.exe
 0000:ffee3000       .debug$S                   0000000180000000     node:node.exe
 0000:ffee3000       .debug$S                   0000000180000000     node:node.exe
 0000:ffee3000       .debug$S                   0000000180000000     node:node.exe
 0000:ffee3000       .debug$S                   0000000180000000     node:node.exe
 0000:ffee3000       .debug$S                   0000000180000000     kernel32:KERNEL32.dll
 0000:ffee3000       .debug$S                   0000000180000000     kernel32:KERNEL32.dll
 0000:ffee3000       .debug$S                   0000000180000000     kernel32:KERNEL32.dll
 0000:ffee3000       .debug$S                   0000000180000000     kernel32:KERNEL32.dll
 0000:ffee3000       .debug$S                   0000000180000000     kernel32:KERNEL32.dll
 0000:ffee3000       .debug$S                   0000000180000000     kernel32:KERNEL32.dll
 0000:ffee3000       .debug$S                   0000000180000000     kernel32:KERNEL32.dll
 0000:ffee3000       .debug$S                   0000000180000000     kernel32:KERNEL32.dll
 0000:ffee3000       .debug$S                   0000000180000000     kernel32:KERNEL32.dll
 0000:ffee3000       .debug$S                   0000000180000000     kernel32:KERNEL32.dll
 0000:ffee3000       .debug$S                   0000000180000000     kernel32:KERNEL32.dll
 0000:ffee3000       .debug$S                   0000000180000000     kernel32:KERNEL32.dll
 0000:ffee3000       .debug$S                   0000000180000000     kernel32:KERNEL32.dll
 0000:ffee3000       .debug$S                   0000000180000000     kernel32:KERNEL32.dll
 0000:ffee3000       .debug$S                   0000000180000000     kernel32:KERNEL32.dll
 0000:ffee3000       .debug$S                   0000000180000000     kernel32:KERNEL32.dll
 0000:ffee3000       .debug$S                   0000000180000000     kernel32:KERNEL32.dll
 0000:ffee3000       .debug$S                   0000000180000000     kernel32:KERNEL32.dll
 0000:ffee3000       .debug$S                   0000000180000000     kernel32:KERNEL32.dll
 0000:ffee3000       .debug$S                   0000000180000000     kernel32:KERNEL32.dll
 0000:ffee3000       .debug$S                   0000000180000000     kernel32:KERNEL32.dll
 0000:ffee3000       .debug$S                   0000000180000000     kernel32:KERNEL32.dll
 0000:ffee3000       .debug$S                   0000000180000000     kernel32:KERNEL32.dll
 0000:ffee3000       .debug$S                   0000000180000000     kernel32:KERNEL32.dll
 0000:ffee3000       .debug$S                   0000000180000000     kernel32:KERNEL32.dll
 0000:ffee3000       .debug$S                   0000000180000000     kernel32:KERNEL32.dll
 0000:ffee3000       .debug$S                   0000000180000000     kernel32:KERNEL32.dll
 0000:ffee3000       .debug$S                   0000000180000000     kernel32:KERNEL32.dll
 0000:ffee3000       .debug$S                   0000000180000000     kernel32:KERNEL32.dll
 0000:ffee3000       .debug$S                   0000000180000000     kernel32:KERNEL32.dll
 0000:ffee3000       .debug$S                   0000000180000000     kernel32:KERNEL32.dll
 0000:ffee3000       .debug$S                   0000000180000000     kernel32:KERNEL32.dll
 0000:ffee3000       .debug$S                   0000000180000000     kernel32:KERNEL32.dll
 0000:ffee3000       .debug$S                   0000000180000000     kernel32:KERNEL32.dll
 0000:ffee3000       .debug$S                   0000000180000000     kernel32:KERNEL32.dll
 0000:ffee3000       .debug$S                   0000000180000000     iconv.exp
 0000:ffee3000       .debug$S                   0000000180000000     kernel32:KERNEL32.dll
 0000:ffee3000       .debug$S                   0000000180000000     kernel32:KERNEL32.dll
 0000:ffee3000       .debug$S                   0000000180000000     kernel32:KERNEL32.dll
 0000:ffee3000       .debug$S                   0000000180000000     kernel32:KERNEL32.dll
 0000:ffee3000       .debug$S                   0000000180000000     kernel32:KERNEL32.dll
 0000:ffee3000       .debug$S                   0000000180000000     kernel32:KERNEL32.dll
 0000:ffee3000       .debug$S                   0000000180000000     kernel32:KERNEL32.dll
 0000:ffee3000       .debug$S                   0000000180000000     kernel32:KERNEL32.dll
 0000:ffee3000       .debug$S                   0000000180000000     kernel32:KERNEL32.dll
 0000:ffee3000       .debug$S                   0000000180000000     kernel32:KERNEL32.dll
 0000:ffee3000       .debug$S                   0000000180000000     kernel32:KERNEL32.dll
 0000:ffee3000       .debug$S                   0000000180000000     kernel32:KERNEL32.dll
 0000:ffee3000       .debug$S                   0000000180000000     kernel32:KERNEL32.dll
 0000:ffee3000       .debug$S                   0000000180000000     kernel32:KERNEL32.dll
 0000:ffee3000       .debug$S                   0000000180000000     kernel32:KERNEL32.dll
 0000:ffee3000       .debug$S                   0000000180000000     kernel32:KERNEL32.dll
 0000:ffee3000       .debug$S                   0000000180000000     node:node.exe
 0000:ffee3000       .debug$S                   0000000180000000     node:node.exe
 0000:ffee3000       .debug$S                   0000000180000000     node:node.exe
 0000:ffee3000       .debug$S                   0000000180000000     node:node.exe
 0000:ffee3000       .debug$S                   0000000180000000     node:node.exe
 0000:ffee3000       .debug$S                   0000000180000000     node:node.exe
 0000:ffee3000       .debug$S                   0000000180000000     node:node.exe
 0000:ffee3000       .debug$S                   0000000180000000     node:node.exe
 0000:ffee3000       .debug$S                   0000000180000000     node:node.exe
 0000:ffee3000       .debug$S                   0000000180000000     node:node.exe
 0000:ffee3000       .debug$S                   0000000180000000     node:node.exe
 0000:ffee3000       .debug$S                   0000000180000000     kernel32:KERNEL32.dll
 0000:ffee3000       .debug$S                   0000000180000000     kernel32:KERNEL32.dll
 0000:ffee3000       .debug$S                   0000000180000000     kernel32:KERNEL32.dll
 0000:ffee3000       .debug$S                   0000000180000000     kernel32:KERNEL32.dll
 0000:ffee3000       .debug$S                   0000000180000000     kernel32:KERNEL32.dll
 0000:ffee3000       .debug$S                   0000000180000000     kernel32:KERNEL32.dll
 0000:ffee3000       .debug$S                   0000000180000000     kernel32:KERNEL32.dll
 0000:ffee3000       .debug$S                   0000000180000000     kernel32:KERNEL32.dll
 0000:ffee3000       .debug$S                   0000000180000000     kernel32:KERNEL32.dll
 0000:ffee3000       .debug$S                   0000000180000000     kernel32:KERNEL32.dll
 0000:ffee3000       .debug$S                   0000000180000000     kernel32:KERNEL32.dll
 0000:ffee3000       .debug$S                   0000000180000000     kernel32:KERNEL32.dll
 0000:ffee3000       .debug$S                   0000000180000000     kernel32:KERNEL32.dll
 0000:ffee3000       .debug$S                   0000000180000000     kernel32:KERNEL32.dll
 0000:ffee3000       .debug$S                   0000000180000000     kernel32:KERNEL32.dll
 0000:ffee3000       .debug$S                   0000000180000000     kernel32:KERNEL32.dll
 0000:ffee3000       .debug$S                   0000000180000000     kernel32:KERNEL32.dll
 0000:ffee3000       .debug$S                   0000000180000000     kernel32:KERNEL32.dll
 0000:ffee3000       .debug$S                   0000000180000000     kernel32:KERNEL32.dll
 0000:ffee3000       .debug$S                   0000000180000000     node:node.exe
 0000:ffee3000       .debug$S                   0000000180000000     node:node.exe
 0000:ffee3000       .debug$S                   0000000180000000     node:node.exe
 0000:ffee3000       .debug$S                   0000000180000000     node:node.exe
 0000:ffee3000       .debug$S                   0000000180000000     node:node.exe
 0000:ffee3000       .debug$S                   0000000180000000     node:node.exe
 0001:00000000       ??__E?object_template@Iconv@?A0xd3ef0bfb@@2V?$Persistent@VObjectTemplate@v8@@V?$NonCopyablePersistentTraits@VObjectTemplate@v8@@@2@@Nan@@A@@YAXXZ 0000000180001000 f   binding.obj
 0001:00000020       ?FunctionCallbackWrapper@imp@Nan@@YAXAEBV?$FunctionCallbackInfo@VValue@v8@@@v8@@@Z 0000000180001020 f   binding.obj
 0001:00000230       ?WeakCallback@Iconv@?A0xd3ef0bfb@@SAXAEBV?$WeakCallbackInfo@UIconv@?A0xd3ef0bfb@@@Nan@@@Z 0000000180001230 f   binding.obj
 0001:00000260       ?Initialize@Iconv@?A0xd3ef0bfb@@SAXV?$Local@VObject@v8@@@v8@@@Z 0000000180001260 f   binding.obj
 0001:000005f0       ?Make@Iconv@?A0xd3ef0bfb@@SAXAEBV?$FunctionCallbackInfo@VValue@v8@@@Nan@@@Z 00000001800015f0 f   binding.obj
 0001:00000830       ?Convert@Iconv@?A0xd3ef0bfb@@SAXAEBV?$FunctionCallbackInfo@VValue@v8@@@Nan@@@Z 0000000180001830 f   binding.obj
 0001:00000d30       _register_libiconv         0000000180001d30 f   binding.obj
 0001:00001050       ??$invokeparameter@$00@?$WeakCallbackInfo@UIconv@?A0xd3ef0bfb@@@Nan@@CAXAEBV?$WeakCallbackInfo@V?$WeakCallbackInfo@UIconv@?A0xd3ef0bfb@@@Nan@@@v8@@@Z 0000000180002050 f   binding.obj
 0001:000010a0       ??$invokeparameter@$0A@@?$WeakCallbackInfo@UIconv@?A0xd3ef0bfb@@@Nan@@CAXAEBV?$WeakCallbackInfo@V?$WeakCallbackInfo@UIconv@?A0xd3ef0bfb@@@Nan@@@v8@@@Z 00000001800020a0 f   binding.obj
 0001:000010d0       ascii_mbtowc               00000001800020d0 f   iconv.obj
 0001:000010f0       ascii_wctomb               00000001800020f0 f   iconv.obj
 0001:00001110       utf8_mbtowc                0000000180002110 f   iconv.obj
 0001:00001260       utf8_wctomb                0000000180002260 f   iconv.obj
 0001:00001330       ucs2_mbtowc                0000000180002330 f   iconv.obj
 0001:000013e0       ucs2_wctomb                00000001800023e0 f   iconv.obj
 0001:00001430       ucs2be_mbtowc              0000000180002430 f   iconv.obj
 0001:00001460       ucs2be_wctomb              0000000180002460 f   iconv.obj
 0001:000014a0       ucs2le_mbtowc              00000001800024a0 f   iconv.obj
 0001:000014d0       ucs2le_wctomb              00000001800024d0 f   iconv.obj
 0001:00001510       ucs4_mbtowc                0000000180002510 f   iconv.obj
 0001:000015e0       ucs4_wctomb                00000001800025e0 f   iconv.obj
 0001:00001620       ucs4be_mbtowc              0000000180002620 f   iconv.obj
 0001:00001660       ucs4be_wctomb              0000000180002660 f   iconv.obj
 0001:00001690       ucs4le_mbtowc              0000000180002690 f   iconv.obj
 0001:000016d0       ucs4le_wctomb              00000001800026d0 f   iconv.obj
 0001:00001700       utf16_mbtowc               0000000180002700 f   iconv.obj
 0001:00001820       utf16_wctomb               0000000180002820 f   iconv.obj
 0001:000018f0       utf16be_mbtowc             00000001800028f0 f   iconv.obj
 0001:00001980       utf16be_wctomb             0000000180002980 f   iconv.obj
 0001:00001a10       utf16le_mbtowc             0000000180002a10 f   iconv.obj
 0001:00001aa0       utf16le_wctomb             0000000180002aa0 f   iconv.obj
 0001:00001b20       utf32_mbtowc               0000000180002b20 f   iconv.obj
 0001:00001c00       utf32_wctomb               0000000180002c00 f   iconv.obj
 0001:00001c80       utf32be_mbtowc             0000000180002c80 f   iconv.obj
 0001:00001ce0       utf32be_wctomb             0000000180002ce0 f   iconv.obj
 0001:00001d30       utf32le_mbtowc             0000000180002d30 f   iconv.obj
 0001:00001d90       utf32le_wctomb             0000000180002d90 f   iconv.obj
 0001:00001de0       utf7_mbtowc                0000000180002de0 f   iconv.obj
 0001:00002060       utf7_wctomb                0000000180003060 f   iconv.obj
 0001:00002320       utf7_reset                 0000000180003320 f   iconv.obj
 0001:000023b0       ucs2internal_mbtowc        00000001800033b0 f   iconv.obj
 0001:000023f0       ucs2internal_wctomb        00000001800033f0 f   iconv.obj
 0001:00002430       ucs2swapped_mbtowc         0000000180003430 f   iconv.obj
 0001:00002470       ucs2swapped_wctomb         0000000180003470 f   iconv.obj
 0001:000024b0       ucs4internal_mbtowc        00000001800034b0 f   iconv.obj
 0001:000024d0       ucs4internal_wctomb        00000001800034d0 f   iconv.obj
 0001:000024f0       ucs4swapped_mbtowc         00000001800034f0 f   iconv.obj
 0001:00002510       ucs4swapped_wctomb         0000000180003510 f   iconv.obj
 0001:00002530       c99_mbtowc                 0000000180003530 f   iconv.obj
 0001:000026e0       c99_wctomb                 00000001800036e0 f   iconv.obj
 0001:000027a0       java_mbtowc                00000001800037a0 f   iconv.obj
 0001:00002960       java_wctomb                0000000180003960 f   iconv.obj
 0001:00002b00       iso8859_1_mbtowc           0000000180003b00 f   iconv.obj
 0001:00002b10       iso8859_1_wctomb           0000000180003b10 f   iconv.obj
 0001:00002b30       iso8859_2_mbtowc           0000000180003b30 f   iconv.obj
 0001:00002b50       iso8859_2_wctomb           0000000180003b50 f   iconv.obj
 0001:00002bc0       iso8859_3_mbtowc           0000000180003bc0 f   iconv.obj
 0001:00002c00       iso8859_3_wctomb           0000000180003c00 f   iconv.obj
 0001:00002c90       iso8859_4_mbtowc           0000000180003c90 f   iconv.obj
 0001:00002cb0       iso8859_4_wctomb           0000000180003cb0 f   iconv.obj
 0001:00002d20       iso8859_5_mbtowc           0000000180003d20 f   iconv.obj
 0001:00002d40       iso8859_5_wctomb           0000000180003d40 f   iconv.obj
 0001:00002dc0       iso8859_6_mbtowc           0000000180003dc0 f   iconv.obj
 0001:00002e00       iso8859_6_wctomb           0000000180003e00 f   iconv.obj
 0001:00002e70       iso8859_7_mbtowc           0000000180003e70 f   iconv.obj
 0001:00002eb0       iso8859_7_wctomb           0000000180003eb0 f   iconv.obj
 0001:00002f60       iso8859_8_mbtowc           0000000180003f60 f   iconv.obj
 0001:00002fa0       iso8859_8_wctomb           0000000180003fa0 f   iconv.obj
 0001:00003030       iso8859_9_mbtowc           0000000180004030 f   iconv.obj
 0001:00003050       iso8859_9_wctomb           0000000180004050 f   iconv.obj
 0001:000030c0       iso8859_10_mbtowc          00000001800040c0 f   iconv.obj
 0001:000030e0       iso8859_10_wctomb          00000001800040e0 f   iconv.obj
 0001:00003130       iso8859_11_mbtowc          0000000180004130 f   iconv.obj
 0001:00003170       iso8859_11_wctomb          0000000180004170 f   iconv.obj
 0001:000031b0       iso8859_13_mbtowc          00000001800041b0 f   iconv.obj
 0001:000031d0       iso8859_13_wctomb          00000001800041d0 f   iconv.obj
 0001:00003240       iso8859_14_mbtowc          0000000180004240 f   iconv.obj
 0001:00003260       iso8859_14_wctomb          0000000180004260 f   iconv.obj
 0001:00003340       iso8859_15_mbtowc          0000000180004340 f   iconv.obj
 0001:00003370       iso8859_15_wctomb          0000000180004370 f   iconv.obj
 0001:000033f0       iso8859_16_mbtowc          00000001800043f0 f   iconv.obj
 0001:00003410       iso8859_16_wctomb          0000000180004410 f   iconv.obj
 0001:000034b0       koi8_r_mbtowc              00000001800044b0 f   iconv.obj
 0001:000034d0       koi8_r_wctomb              00000001800044d0 f   iconv.obj
 0001:000035b0       koi8_u_mbtowc              00000001800045b0 f   iconv.obj
 0001:000035d0       koi8_u_wctomb              00000001800045d0 f   iconv.obj
 0001:000036c0       koi8_ru_mbtowc             00000001800046c0 f   iconv.obj
 0001:000036e0       koi8_ru_wctomb             00000001800046e0 f   iconv.obj
 0001:000037d0       cp1250_mbtowc              00000001800047d0 f   iconv.obj
 0001:00003810       cp1250_wctomb              0000000180004810 f   iconv.obj
 0001:000038c0       cp1251_mbtowc              00000001800048c0 f   iconv.obj
 0001:00003900       cp1251_wctomb              0000000180004900 f   iconv.obj
 0001:000039d0       cp1252_mbtowc              00000001800049d0 f   iconv.obj
 0001:00003a10       cp1252_wctomb              0000000180004a10 f   iconv.obj
 0001:00003ad0       cp1253_mbtowc              0000000180004ad0 f   iconv.obj
 0001:00003b10       cp1253_wctomb              0000000180004b10 f   iconv.obj
 0001:00003bd0       cp1254_mbtowc              0000000180004bd0 f   iconv.obj
 0001:00003c50       cp1254_wctomb              0000000180004c50 f   iconv.obj
 0001:00003d40       normal_flushwc             0000000180004d40 f   iconv.obj
 0001:00003d60       cp1255_mbtowc              0000000180004d60 f   iconv.obj
 0001:00003f70       $LN43                      0000000180004f70     iconv.obj
 0001:00003fb0       cp1255_wctomb              0000000180004fb0 f   iconv.obj
 0001:000041e0       cp1256_mbtowc              00000001800051e0 f   iconv.obj
 0001:00004200       cp1256_wctomb              0000000180005200 f   iconv.obj
 0001:000042f0       cp1257_mbtowc              00000001800052f0 f   iconv.obj
 0001:00004330       cp1257_wctomb              0000000180005330 f   iconv.obj
 0001:000043e0       cp1258_mbtowc              00000001800053e0 f   iconv.obj
 0001:000045b0       cp1258_wctomb              00000001800055b0 f   iconv.obj
 0001:000047f0       cp850_mbtowc               00000001800057f0 f   iconv.obj
 0001:00004810       cp850_wctomb               0000000180005810 f   iconv.obj
 0001:000048c0       cp862_mbtowc               00000001800058c0 f   iconv.obj
 0001:000048e0       cp862_wctomb               00000001800058e0 f   iconv.obj
 0001:00004a20       cp866_mbtowc               0000000180005a20 f   iconv.obj
 0001:00004a60       cp866_wctomb               0000000180005a60 f   iconv.obj
 0001:00004b30       cp1131_mbtowc              0000000180005b30 f   iconv.obj
 0001:00004b50       cp1131_wctomb              0000000180005b50 f   iconv.obj
 0001:00004c00       mac_roman_mbtowc           0000000180005c00 f   iconv.obj
 0001:00004c40       mac_roman_wctomb           0000000180005c40 f   iconv.obj
 0001:00004d90       mac_centraleurope_mbtowc   0000000180005d90 f   iconv.obj
 0001:00004db0       mac_centraleurope_wctomb   0000000180005db0 f   iconv.obj
 0001:00004ea0       mac_iceland_mbtowc         0000000180005ea0 f   iconv.obj
 0001:00004ee0       mac_iceland_wctomb         0000000180005ee0 f   iconv.obj
 0001:00005000       mac_croatian_mbtowc        0000000180006000 f   iconv.obj
 0001:00005040       mac_croatian_wctomb        0000000180006040 f   iconv.obj
 0001:00005140       mac_romania_mbtowc         0000000180006140 f   iconv.obj
 0001:00005180       mac_romania_wctomb         0000000180006180 f   iconv.obj
 0001:00005280       mac_cyrillic_mbtowc        0000000180006280 f   iconv.obj
 0001:000052a0       mac_cyrillic_wctomb        00000001800062a0 f   iconv.obj
 0001:000053a0       mac_ukraine_mbtowc         00000001800063a0 f   iconv.obj
 0001:000053c0       mac_ukraine_wctomb         00000001800063c0 f   iconv.obj
 0001:000054d0       mac_greek_mbtowc           00000001800064d0 f   iconv.obj
 0001:00005510       mac_greek_wctomb           0000000180006510 f   iconv.obj
 0001:000055f0       mac_turkish_mbtowc         00000001800065f0 f   iconv.obj
 0001:00005630       mac_turkish_wctomb         0000000180006630 f   iconv.obj
 0001:00005750       mac_hebrew_mbtowc          0000000180006750 f   iconv.obj
 0001:00005790       mac_hebrew_wctomb          0000000180006790 f   iconv.obj
 0001:00005860       mac_arabic_mbtowc          0000000180006860 f   iconv.obj
 0001:000058a0       mac_arabic_wctomb          00000001800068a0 f   iconv.obj
 0001:00005920       mac_thai_mbtowc            0000000180006920 f   iconv.obj
 0001:00005960       mac_thai_wctomb            0000000180006960 f   iconv.obj
 0001:00005a30       hp_roman8_mbtowc           0000000180006a30 f   iconv.obj
 0001:00005a70       hp_roman8_wctomb           0000000180006a70 f   iconv.obj
 0001:00005b30       nextstep_mbtowc            0000000180006b30 f   iconv.obj
 0001:00005b70       nextstep_wctomb            0000000180006b70 f   iconv.obj
 0001:00005c50       armscii_8_mbtowc           0000000180006c50 f   iconv.obj
 0001:00005c90       armscii_8_wctomb           0000000180006c90 f   iconv.obj
 0001:00005d40       georgian_academy_mbtowc    0000000180006d40 f   iconv.obj
 0001:00005d80       georgian_academy_wctomb    0000000180006d80 f   iconv.obj
 0001:00005e70       georgian_ps_mbtowc         0000000180006e70 f   iconv.obj
 0001:00005ec0       georgian_ps_wctomb         0000000180006ec0 f   iconv.obj
 0001:00005fd0       koi8_t_mbtowc              0000000180006fd0 f   iconv.obj
 0001:00006010       koi8_t_wctomb              0000000180007010 f   iconv.obj
 0001:000060d0       pt154_mbtowc               00000001800070d0 f   iconv.obj
 0001:00006110       pt154_wctomb               0000000180007110 f   iconv.obj
 0001:000061b0       rk1048_mbtowc              00000001800071b0 f   iconv.obj
 0001:000061f0       rk1048_wctomb              00000001800071f0 f   iconv.obj
 0001:000062c0       mulelao_mbtowc             00000001800072c0 f   iconv.obj
 0001:00006300       mulelao_wctomb             0000000180007300 f   iconv.obj
 0001:00006350       cp1133_mbtowc              0000000180007350 f   iconv.obj
 0001:000063a0       cp1133_wctomb              00000001800073a0 f   iconv.obj
 0001:00006420       tis620_mbtowc              0000000180007420 f   iconv.obj
 0001:00006460       tis620_wctomb              0000000180007460 f   iconv.obj
 0001:000064a0       cp874_mbtowc               00000001800074a0 f   iconv.obj
 0001:000064e0       cp874_wctomb               00000001800074e0 f   iconv.obj
 0001:00006570       viscii_mbtowc              0000000180007570 f   iconv.obj
 0001:000065b0       viscii_wctomb              00000001800075b0 f   iconv.obj
 0001:00006640       tcvn_mbtowc                0000000180007640 f   iconv.obj
 0001:00006800       tcvn_wctomb                0000000180007800 f   iconv.obj
 0001:000069b0       iso646_jp_mbtowc           00000001800079b0 f   iconv.obj
 0001:000069e0       iso646_jp_wctomb           00000001800079e0 f   iconv.obj
 0001:00006a30       jisx0201_mbtowc            0000000180007a30 f   iconv.obj
 0001:00006a80       jisx0201_wctomb            0000000180007a80 f   iconv.obj
 0001:00006ae0       jisx0208_mbtowc            0000000180007ae0 f   iconv.obj
 0001:00006b70       jisx0208_wctomb            0000000180007b70 f   iconv.obj
 0001:00006d70       jisx0212_mbtowc            0000000180007d70 f   iconv.obj
 0001:00006e80       jisx0212_wctomb            0000000180007e80 f   iconv.obj
 0001:00006fe0       iso646_cn_mbtowc           0000000180007fe0 f   iconv.obj
 0001:00007010       iso646_cn_wctomb           0000000180008010 f   iconv.obj
 0001:00007060       gb2312_mbtowc              0000000180008060 f   iconv.obj
 0001:000070f0       gb2312_wctomb              00000001800080f0 f   iconv.obj
 0001:000072b0       isoir165ext_mbtowc         00000001800082b0 f   iconv.obj
 0001:00007350       isoir165ext_wctomb         0000000180008350 f   iconv.obj
 0001:000075b0       isoir165_mbtowc            00000001800085b0 f   iconv.obj
 0001:000076e0       isoir165_wctomb            00000001800086e0 f   iconv.obj
 0001:000077e0       gbkext_inv_wctomb          00000001800087e0 f   iconv.obj
 0001:00007a00       gbk_mbtowc                 0000000180008a00 f   iconv.obj
 0001:00007ca0       gbk_wctomb                 0000000180008ca0 f   iconv.obj
 0001:00007eb0       cns11643_1_mbtowc          0000000180008eb0 f   iconv.obj
 0001:00007fb0       cns11643_3_mbtowc          0000000180008fb0 f   iconv.obj
 0001:00008050       cns11643_4_mbtowc          0000000180009050 f   iconv.obj
 0001:000080f0       cns11643_inv_wctomb        00000001800090f0 f   iconv.obj
 0001:00008330       big5_mbtowc                0000000180009330 f   iconv.obj
 0001:000083e0       big5_wctomb                00000001800093e0 f   iconv.obj
 0001:000085e0       ksc5601_mbtowc             00000001800095e0 f   iconv.obj
 0001:000086b0       ksc5601_wctomb             00000001800096b0 f   iconv.obj
 0001:000088a0       johab_hangul_wctomb        00000001800098a0 f   iconv.obj
 0001:00008980       euc_jp_mbtowc              0000000180009980 f   iconv.obj
 0001:00008ba0       euc_jp_wctomb              0000000180009ba0 f   iconv.obj
 0001:00008d80       sjis_mbtowc                0000000180009d80 f   iconv.obj
 0001:00008f30       sjis_wctomb                0000000180009f30 f   iconv.obj
 0001:00009110       cp932ext_wctomb            000000018000a110 f   iconv.obj
 0001:00009420       cp932_mbtowc               000000018000a420 f   iconv.obj
 0001:000096b0       cp932_wctomb               000000018000a6b0 f   iconv.obj
 0001:00009990       iso2022_jp_mbtowc          000000018000a990 f   iconv.obj
 0001:00009c20       iso2022_jp_wctomb          000000018000ac20 f   iconv.obj
 0001:00009da0       iso2022_jp1_reset          000000018000ada0 f   iconv.obj
 0001:00009da0       iso2022_jp_reset           000000018000ada0 f   iconv.obj
 0001:00009da0       iso2022_jpms_reset         000000018000ada0 f   iconv.obj
 0001:00009dd0       iso2022_jp1_mbtowc         000000018000add0 f   iconv.obj
 0001:0000a0b0       iso2022_jp1_wctomb         000000018000b0b0 f   iconv.obj
 0001:0000a2a0       iso2022_jp2_mbtowc         000000018000b2a0 f   iconv.obj
 0001:0000a7dc       $LN170                     000000018000b7dc     iconv.obj
 0001:0000a800       iso2022_jp2_wctomb         000000018000b800 f   iconv.obj
 0001:0000af4c       $LN150                     000000018000bf4c     iconv.obj
 0001:0000af70       $LN149                     000000018000bf70     iconv.obj
 0001:0000aff0       iso2022_jp2_reset          000000018000bff0 f   iconv.obj
 0001:0000b020       cp50221_0212_ext_wctomb    000000018000c020 f   iconv.obj
 0001:0000b3f0       iso2022_jpms_mbtowc        000000018000c3f0 f   iconv.obj
 0001:0000b8d0       iso2022_jpms_wctomb        000000018000c8d0 f   iconv.obj
 0001:0000bd40       euc_cn_mbtowc              000000018000cd40 f   iconv.obj
 0001:0000be00       euc_cn_wctomb              000000018000ce00 f   iconv.obj
 0001:0000bea0       ces_gbk_mbtowc             000000018000cea0 f   iconv.obj
 0001:0000bee0       ces_gbk_wctomb             000000018000cee0 f   iconv.obj
 0001:0000c080       cp936_mbtowc               000000018000d080 f   iconv.obj
 0001:0000c1d0       cp936_wctomb               000000018000d1d0 f   iconv.obj
 0001:0000c400       gb18030ext_mbtowc          000000018000d400 f   iconv.obj
 0001:0000c728       $LN75                      000000018000d728     iconv.obj
 0001:0000c750       $LN74                      000000018000d750     iconv.obj
 0001:0000c7b0       gb18030ext_wctomb          000000018000d7b0 f   iconv.obj
 0001:0000cb30       gb18030_mbtowc             000000018000db30 f   iconv.obj
 0001:0000cdd0       gb18030_wctomb             000000018000ddd0 f   iconv.obj
 0001:0000d0f0       iso2022_cn_mbtowc          000000018000e0f0 f   iconv.obj
 0001:0000d440       iso2022_cn_wctomb          000000018000e440 f   iconv.obj
 0001:0000d6b0       iso2022_kr_reset           000000018000e6b0 f   iconv.obj
 0001:0000d6b0       iso2022_cn_reset           000000018000e6b0 f   iconv.obj
 0001:0000d6b0       iso2022_cn_ext_reset       000000018000e6b0 f   iconv.obj
 0001:0000d6d0       iso2022_cn_ext_mbtowc      000000018000e6d0 f   iconv.obj
 0001:0000dd74       $LN201                     000000018000ed74     iconv.obj
 0001:0000dd90       iso2022_cn_ext_wctomb      000000018000ed90 f   iconv.obj
 0001:0000e320       hz_mbtowc                  000000018000f320 f   iconv.obj
 0001:0000e4a0       hz_wctomb                  000000018000f4a0 f   iconv.obj
 0001:0000e590       hz_reset                   000000018000f590 f   iconv.obj
 0001:0000e5b0       euc_tw_mbtowc              000000018000f5b0 f   iconv.obj
 0001:0000e95c       $LN87                      000000018000f95c     iconv.obj
 0001:0000e9a0       euc_tw_wctomb              000000018000f9a0 f   iconv.obj
 0001:0000ea70       ces_big5_mbtowc            000000018000fa70 f   iconv.obj
 0001:0000eac0       ces_big5_wctomb            000000018000fac0 f   iconv.obj
 0001:0000eb50       cp950ext_wctomb            000000018000fb50 f   iconv.obj
 0001:0000ed70       cp950_mbtowc               000000018000fd70 f   iconv.obj
 0001:0000ef60       cp950_wctomb               000000018000ff60 f   iconv.obj
 0001:0000f2b0       hkscs1999_mbtowc           00000001800102b0 f   iconv.obj
 0001:0000f3e0       hkscs1999_wctomb           00000001800103e0 f   iconv.obj
 0001:0000f6e0       big5hkscs1999_mbtowc       00000001800106e0 f   iconv.obj
 0001:0000f7f0       big5hkscs1999_wctomb       00000001800107f0 f   iconv.obj
 0001:0000f970       big5hkscs1999_reset        0000000180010970 f   iconv.obj
 0001:0000f970       big5hkscs2008_reset        0000000180010970 f   iconv.obj
 0001:0000f970       big5hkscs2001_reset        0000000180010970 f   iconv.obj
 0001:0000f970       big5hkscs2004_reset        0000000180010970 f   iconv.obj
 0001:0000f9a0       hkscs2001_mbtowc           00000001800109a0 f   iconv.obj
 0001:0000fa30       hkscs2001_wctomb           0000000180010a30 f   iconv.obj
 0001:00010330       big5hkscs2001_mbtowc       0000000180011330 f   iconv.obj
 0001:00010450       big5hkscs2001_wctomb       0000000180011450 f   iconv.obj
 0001:000105f0       hkscs2004_mbtowc           00000001800115f0 f   iconv.obj
 0001:000106c0       hkscs2004_wctomb           00000001800116c0 f   iconv.obj
 0001:00011020       big5hkscs2004_mbtowc       0000000180012020 f   iconv.obj
 0001:00011150       big5hkscs2004_wctomb       0000000180012150 f   iconv.obj
 0001:00011320       hkscs2008_wctomb           0000000180012320 f   iconv.obj
 0001:00011a40       big5hkscs2008_mbtowc       0000000180012a40 f   iconv.obj
 0001:00011c00       big5hkscs2008_wctomb       0000000180012c00 f   iconv.obj
 0001:00011de0       euc_kr_mbtowc              0000000180012de0 f   iconv.obj
 0001:00011ed0       euc_kr_wctomb              0000000180012ed0 f   iconv.obj
 0001:00011f70       cp949_mbtowc               0000000180012f70 f   iconv.obj
 0001:000121f0       cp949_wctomb               00000001800131f0 f   iconv.obj
 0001:000124a0       johab_mbtowc               00000001800134a0 f   iconv.obj
 0001:00012770       johab_wctomb               0000000180013770 f   iconv.obj
 0001:000128f0       iso2022_kr_mbtowc          00000001800138f0 f   iconv.obj
 0001:00012a70       iso2022_kr_wctomb          0000000180013a70 f   iconv.obj
 0001:00012ba0       cp856_mbtowc               0000000180013ba0 f   iconv.obj
 0001:00012be0       cp856_wctomb               0000000180013be0 f   iconv.obj
 0001:00012c90       cp922_mbtowc               0000000180013c90 f   iconv.obj
 0001:00012d00       cp922_wctomb               0000000180013d00 f   iconv.obj
 0001:00012d80       cp1046_mbtowc              0000000180013d80 f   iconv.obj
 0001:00012dc0       cp1046_wctomb              0000000180013dc0 f   iconv.obj
 0001:00012eb0       cp1124_mbtowc              0000000180013eb0 f   iconv.obj
 0001:00012ed0       cp1124_wctomb              0000000180013ed0 f   iconv.obj
 0001:00012f50       cp1129_mbtowc              0000000180013f50 f   iconv.obj
 0001:00012f70       cp1129_wctomb              0000000180013f70 f   iconv.obj
 0001:00012ff0       cp1161_mbtowc              0000000180013ff0 f   iconv.obj
 0001:00013020       cp1161_wctomb              0000000180014020 f   iconv.obj
 0001:000130b0       cp1162_mbtowc              00000001800140b0 f   iconv.obj
 0001:000130f0       cp1162_wctomb              00000001800140f0 f   iconv.obj
 0001:00013190       cp1163_mbtowc              0000000180014190 f   iconv.obj
 0001:000131c0       cp1163_wctomb              00000001800141c0 f   iconv.obj
 0001:00013280       dec_kanji_mbtowc           0000000180014280 f   iconv.obj
 0001:00013340       dec_kanji_wctomb           0000000180014340 f   iconv.obj
 0001:000133e0       dec_hanyu_mbtowc           00000001800143e0 f   iconv.obj
 0001:00013590       dec_hanyu_wctomb           0000000180014590 f   iconv.obj
 0001:000136a0       cp437_mbtowc               00000001800146a0 f   iconv.obj
 0001:000136c0       cp437_wctomb               00000001800146c0 f   iconv.obj
 0001:000137e0       cp737_mbtowc               00000001800147e0 f   iconv.obj
 0001:00013800       cp737_wctomb               0000000180014800 f   iconv.obj
 0001:000138e0       cp775_mbtowc               00000001800148e0 f   iconv.obj
 0001:00013900       cp775_wctomb               0000000180014900 f   iconv.obj
 0001:000139b0       cp852_mbtowc               00000001800149b0 f   iconv.obj
 0001:000139d0       cp852_wctomb               00000001800149d0 f   iconv.obj
 0001:00013a70       cp853_mbtowc               0000000180014a70 f   iconv.obj
 0001:00013ab0       cp853_wctomb               0000000180014ab0 f   iconv.obj
 0001:00013b80       cp855_mbtowc               0000000180014b80 f   iconv.obj
 0001:00013ba0       cp855_wctomb               0000000180014ba0 f   iconv.obj
 0001:00013c50       cp857_mbtowc               0000000180014c50 f   iconv.obj
 0001:00013c90       cp857_wctomb               0000000180014c90 f   iconv.obj
 0001:00013d20       cp858_mbtowc               0000000180014d20 f   iconv.obj
 0001:00013d50       cp858_wctomb               0000000180014d50 f   iconv.obj
 0001:00013e00       cp860_mbtowc               0000000180014e00 f   iconv.obj
 0001:00013e20       cp860_wctomb               0000000180014e20 f   iconv.obj
 0001:00013f20       cp861_mbtowc               0000000180014f20 f   iconv.obj
 0001:00013f40       cp861_wctomb               0000000180014f40 f   iconv.obj
 0001:00014060       cp863_mbtowc               0000000180015060 f   iconv.obj
 0001:00014080       cp863_wctomb               0000000180015080 f   iconv.obj
 0001:000141a0       cp864_mbtowc               00000001800151a0 f   iconv.obj
 0001:00014200       cp864_wctomb               0000000180015200 f   iconv.obj
 0001:00014360       cp865_mbtowc               0000000180015360 f   iconv.obj
 0001:00014380       cp865_wctomb               0000000180015380 f   iconv.obj
 0001:000144a0       cp869_mbtowc               00000001800154a0 f   iconv.obj
 0001:000144e0       cp869_wctomb               00000001800154e0 f   iconv.obj
 0001:000145a0       cp1125_mbtowc              00000001800155a0 f   iconv.obj
 0001:000145e0       cp1125_wctomb              00000001800155e0 f   iconv.obj
 0001:000146a0       jisx0213_to_ucs4           00000001800156a0 f   iconv.obj
 0001:00014750       ucs4_to_jisx0213           0000000180015750 f   iconv.obj
 0001:00014820       euc_jisx0213_mbtowc        0000000180015820 f   iconv.obj
 0001:00014940       euc_jisx0213_wctomb        0000000180015940 f   iconv.obj
 0001:00014b40       shift_jisx0213_reset       0000000180015b40 f   iconv.obj
 0001:00014b40       euc_jisx0213_reset         0000000180015b40 f   iconv.obj
 0001:00014b70       shift_jisx0213_mbtowc      0000000180015b70 f   iconv.obj
 0001:00014cf0       shift_jisx0213_wctomb      0000000180015cf0 f   iconv.obj
 0001:00014f70       iso2022_jp3_mbtowc         0000000180015f70 f   iconv.obj
 0001:00015330       $LN109                     0000000180016330     iconv.obj
 0001:00015350       iso2022_jp3_flushwc        0000000180016350 f   iconv.obj
 0001:00015380       iso2022_jp3_wctomb         0000000180016380 f   iconv.obj
 0001:00015780       iso2022_jp3_reset          0000000180016780 f   iconv.obj
 0001:00015830       big5_2003_mbtowc           0000000180016830 f   iconv.obj
 0001:00015b10       big5_2003_wctomb           0000000180016b10 f   iconv.obj
 0001:000162f0       $LN141                     00000001800172f0     iconv.obj
 0001:0001634c       $LN140                     000000018001734c     iconv.obj
 0001:00016450       tds565_mbtowc              0000000180017450 f   iconv.obj
 0001:00016480       tds565_wctomb              0000000180017480 f   iconv.obj
 0001:00016510       atarist_mbtowc             0000000180017510 f   iconv.obj
 0001:00016530       atarist_wctomb             0000000180017530 f   iconv.obj
 0001:00016670       riscos1_mbtowc             0000000180017670 f   iconv.obj
 0001:000166a0       riscos1_wctomb             00000001800176a0 f   iconv.obj
 0001:000167a0       unicode_transliterate      00000001800177a0 f   iconv.obj
 0001:00016e80       uc_to_mb_write_replacement 0000000180017e80 f   iconv.obj
 0001:00016ed0       mb_to_uc_write_replacement 0000000180017ed0 f   iconv.obj
 0001:00017070       unicode_loop_convert       0000000180018070 f   iconv.obj
 0001:000173e4       $LN164                     00000001800183e4     iconv.obj
 0001:000173f0       $LN163                     00000001800183f0     iconv.obj
 0001:00017404       $LN162                     0000000180018404     iconv.obj
 0001:00017410       $LN161                     0000000180018410     iconv.obj
 0001:00017430       unicode_loop_reset         0000000180018430 f   iconv.obj
 0001:000177bc       $LN23                      00000001800187bc     iconv.obj
 0001:00017ba0       ?load_exe_hook@@YAP6A_JXZIPEAUDelayLoadInfo@@@Z 0000000180018ba0 f   win_delay_load_hook.obj
 0001:00017e10       $$000000                   0000000180018e10     LIBCMT:amdsecgs.obj
 0001:00018240       ?dllmain_crt_dispatch@@YAHQEAUHINSTANCE__@@KQEAX@Z 0000000180019240 f   LIBCMT:dll_dllmain.obj
 0001:00018290       ?dllmain_crt_process_attach@@YAHQEAUHINSTANCE__@@QEAX@Z 0000000180019290 f   LIBCMT:dll_dllmain.obj
 0001:000183a8       ?dllmain_crt_process_detach@@YAH_N@Z 00000001800193a8 f   LIBCMT:dll_dllmain.obj
 0001:0001842c       ?dllmain_dispatch@@YAHQEAUHINSTANCE__@@KQEAX@Z 000000018001942c f   LIBCMT:dll_dllmain.obj
 0001:00018758       capture_current_context    0000000180019758 f   LIBCMT:gs_report.obj
 0001:000187c8       capture_previous_context   00000001800197c8 f   LIBCMT:gs_report.obj
 0001:00019280       $$000000                   000000018001a280     libvcruntime:memset.obj
 0001:00019688       ?try_get_function@@YAPEAXW4function_id@?A0xa3f614c4@@QEBDQEBW4module_id@2@2@Z 000000018001a688 f   libvcruntime:winapi_downlevel.obj
 0001:00019a70       $$000000                   000000018001aa70     libvcruntime:notify.obj
 0001:00019b70       $$000000                   000000018001ab70     libvcruntime:memcpy.obj
 0001:00019f80       $$000000                   000000018001af80     libvcruntime:handlers.obj
 0001:0001a114       ??$common_assert_to_message_box@_W@@YAXQEB_W0IQEAX@Z 000000018001b114 f   libucrt:assert.obj
 0001:0001a1d8       ??$common_assert_to_message_box_build_string@_W@@YAXQEA_W_KQEB_W2IQEAX@Z 000000018001b1d8 f   libucrt:assert.obj
 0001:0001a6dc       ??$common_assert_to_stderr@_W@@YAXQEB_W0I@Z 000000018001b6dc f   libucrt:assert.obj
 0001:0001a84c       ?get_assert_format@@YAPEB_W_W@Z 000000018001b84c f   libucrt:assert.obj
 0001:0001b15c       ??$?RV<lambda_d80eeec6fff315bfe5c115232f3240e3>@@AEAV<lambda_6e4b09c48022b2350581041d5f6b0c4c>@@V<lambda_2358e3775559c9db80273638284d5e45>@@@?$__crt_seh_guarded_call@X@@QEAAX$$QEAV<lambda_d80eeec6fff315bfe5c115232f3240e3>@@AEAV<lambda_6e4b09c48022b2350581041d5f6b0c4c>@@$$QEAV<lambda_2358e3775559c9db80273638284d5e45>@@@Z 000000018001c15c f   libucrt:exit.obj
 0001:0001b194       ??R<lambda_6e4b09c48022b2350581041d5f6b0c4c>@@QEBA@XZ 000000018001c194 f   libucrt:exit.obj
 0001:0001b258       ?atexit_exception_filter@@YAHK@Z 000000018001c258 f   libucrt:exit.obj
 0001:0001b264       ?common_exit@@YAXHW4_crt_exit_cleanup_mode@@W4_crt_exit_return_mode@@@Z 000000018001c264 f   libucrt:exit.obj
 0001:0001b320       ?exit_or_terminate_process@@YAXI@Z 000000018001c320 f   libucrt:exit.obj
 0001:0001b36c       ?try_cor_exit_process@@YAXI@Z 000000018001c36c f   libucrt:exit.obj
 0001:0001b3f4       ??$parse_command_line@D@@YAXPEADPEAPEAD0PEA_K2@Z 000000018001c3f4 f   libucrt:argv_parsing.obj
 0001:0001b7a0       ??$common_initialize_environment_nolock@D@@YAHXZ 000000018001c7a0 f   libucrt:environment_initialization.obj
 0001:0001b80c       ??$create_environment@D@@YAQEAPEADQEAD@Z 000000018001c80c f   libucrt:environment_initialization.obj
 0001:0001b914       ??$free_environment@D@@YAXQEAPEAD@Z 000000018001c914 f   libucrt:environment_initialization.obj
 0001:0001b914       ??$free_environment@_W@@YAXQEAPEA_W@Z 000000018001c914 f   libucrt:environment_initialization.obj
 0001:0001b958       ??$uninitialize_environment_internal@D@@YAXAEAPEAPEAD@Z 000000018001c958 f   libucrt:environment_initialization.obj
 0001:0001b974       ??$uninitialize_environment_internal@_W@@YAXAEAPEAPEA_W@Z 000000018001c974 f   libucrt:environment_initialization.obj
 0001:0001b9d0       ??$?RV<lambda_638799b9deba96c50f710eeac98168cd>@@AEAV<lambda_22ebabd17bc4fa466a2aca6d8deb888d>@@V<lambda_a6f7d7db0129f75315ebf26d50c089f1>@@@?$__crt_seh_guarded_call@H@@QEAAH$$QEAV<lambda_638799b9deba96c50f710eeac98168cd>@@AEAV<lambda_22ebabd17bc4fa466a2aca6d8deb888d>@@$$QEAV<lambda_a6f7d7db0129f75315ebf26d50c089f1>@@@Z 000000018001c9d0 f   libucrt:onexit.obj
 0001:0001ba0c       ??$?RV<lambda_7777bce6b2f8c936911f934f8298dc43>@@AEAV<lambda_f03950bc5685219e0bcd2087efbe011e>@@V<lambda_3883c3dff614d5e0c5f61bb1ac94921c>@@@?$__crt_seh_guarded_call@H@@QEAAH$$QEAV<lambda_7777bce6b2f8c936911f934f8298dc43>@@AEAV<lambda_f03950bc5685219e0bcd2087efbe011e>@@$$QEAV<lambda_3883c3dff614d5e0c5f61bb1ac94921c>@@@Z 000000018001ca0c f   libucrt:onexit.obj
 0001:0001ba48       ??R<lambda_22ebabd17bc4fa466a2aca6d8deb888d>@@QEBAHXZ 000000018001ca48 f   libucrt:onexit.obj
 0001:0001bbf8       ??R<lambda_f03950bc5685219e0bcd2087efbe011e>@@QEBAHXZ 000000018001cbf8 f   libucrt:onexit.obj
 0001:0001bdcc       initialize_global_variables 000000018001cdcc f   libucrt:initialization.obj
 0001:0001bde0       initialize_c               000000018001cde0 f   libucrt:initialization.obj
 0001:0001be04       uninitialize_c             000000018001ce04 f   libucrt:initialization.obj
 0001:0001be04       uninitialize_global_state_isolation 000000018001ce04 f   libucrt:initialization.obj
 0001:0001be04       initialize_global_state_isolation 000000018001ce04 f   libucrt:initialization.obj
 0001:0001be04       report_memory_leaks        000000018001ce04 f   libucrt:initialization.obj
 0001:0001be04       initialize_environment     000000018001ce04 f   libucrt:initialization.obj
 0001:0001be08       uninitialize_environment   000000018001ce08 f   libucrt:initialization.obj
 0001:0001be18       initialize_pointers        000000018001ce18 f   libucrt:initialization.obj
 0001:0001be58       uninitialize_vcruntime     000000018001ce58 f   libucrt:initialization.obj
 0001:0001be60       uninitialize_allocated_memory 000000018001ce60 f   libucrt:initialization.obj
 0001:0001bea0       uninitialize_allocated_io_buffers 000000018001cea0 f   libucrt:initialization.obj
 0001:0001c0d4       ??$?RV<lambda_0d412022a4b28cc8a401ea49574e8ae6>@@AEAV<lambda_a775ed57af18ba8e4d5dc780aa9068fe>@@V<lambda_975a71a6baa488a08f4e15f6b0339b9e>@@@?$__crt_seh_guarded_call@H@@QEAAH$$QEAV<lambda_0d412022a4b28cc8a401ea49574e8ae6>@@AEAV<lambda_a775ed57af18ba8e4d5dc780aa9068fe>@@$$QEAV<lambda_975a71a6baa488a08f4e15f6b0339b9e>@@@Z 000000018001d0d4 f   libucrt:output.obj
 0001:0001c114       ??$common_vsprintf@Vstandard_base@__crt_stdio_output@@_W@@YAH_KQEA_W0QEB_WQEAU__crt_locale_pointers@@QEAD@Z 000000018001d114 f   libucrt:output.obj
 0001:0001c6d4       ??R<lambda_a775ed57af18ba8e4d5dc780aa9068fe>@@QEBAHXZ 000000018001d6d4 f   libucrt:output.obj
 0001:0001e8b0       $$000000                   000000018001f8b0     libucrt:strncmp.obj
 0001:0001ebbc       ??$?RV<lambda_0ae27a3a962d80f24befdcbee591983d>@@AEAV<lambda_8d0ee55de4b1038c4002e0adecdf1839>@@V<lambda_dc504788e8f1664fe9b84e20bfb512f2>@@@?$__crt_seh_guarded_call@X@@QEAAX$$QEAV<lambda_0ae27a3a962d80f24befdcbee591983d>@@AEAV<lambda_8d0ee55de4b1038c4002e0adecdf1839>@@$$QEAV<lambda_dc504788e8f1664fe9b84e20bfb512f2>@@@Z 000000018001fbbc f   libucrt:per_thread_data.obj
 0001:0001ebfc       ??$?RV<lambda_2d41944a1d46af3157314b8a01080d33>@@AEAV<lambda_8f455de75cd7d7f24b4096f044d8b9e6>@@V<lambda_aa500f224e6afead328df44964fe2772>@@@?$__crt_seh_guarded_call@X@@QEAAX$$QEAV<lambda_2d41944a1d46af3157314b8a01080d33>@@AEAV<lambda_8f455de75cd7d7f24b4096f044d8b9e6>@@$$QEAV<lambda_aa500f224e6afead328df44964fe2772>@@@Z 000000018001fbfc f   libucrt:per_thread_data.obj
 0001:0001ec3c       ??$?RV<lambda_aa87e3671a710a21b5dc78c0bdf72e11>@@AEAV<lambda_92619d2358a28f41a33ba319515a20b9>@@V<lambda_6992ecaafeb10aed2b74cb1fae11a551>@@@?$__crt_seh_guarded_call@X@@QEAAX$$QEAV<lambda_aa87e3671a710a21b5dc78c0bdf72e11>@@AEAV<lambda_92619d2358a28f41a33ba319515a20b9>@@$$QEAV<lambda_6992ecaafeb10aed2b74cb1fae11a551>@@@Z 000000018001fc3c f   libucrt:per_thread_data.obj
 0001:0001ec84       ??$?RV<lambda_f2e299630e499de9f9a165e60fcd3db5>@@AEAV<lambda_2ae9d31cdba2644fcbeaf08da7c24588>@@V<lambda_40d01ff24d0e7b3814fdbdcee8eab3c7>@@@?$__crt_seh_guarded_call@X@@QEAAX$$QEAV<lambda_f2e299630e499de9f9a165e60fcd3db5>@@AEAV<lambda_2ae9d31cdba2644fcbeaf08da7c24588>@@$$QEAV<lambda_40d01ff24d0e7b3814fdbdcee8eab3c7>@@@Z 000000018001fc84 f   libucrt:per_thread_data.obj
 0001:0001ece4       ?construct_ptd_array@@YAXQEAU__acrt_ptd@@@Z 000000018001fce4 f   libucrt:per_thread_data.obj
 0001:0001edb4       ?destroy_fls@@YAXPEAX@Z    000000018001fdb4 f   libucrt:per_thread_data.obj
 0001:0001edd4       ?destroy_ptd_array@@YAXQEAU__acrt_ptd@@@Z 000000018001fdd4 f   libucrt:per_thread_data.obj
 0001:0001eecc       ?replace_current_thread_locale_nolock@@YAXQEAU__acrt_ptd@@QEAU__crt_locale_data@@@Z 000000018001fecc f   libucrt:per_thread_data.obj
 0001:0001f268       ??$common_xtox@K_W@@YAHKQEA_W_KI_N@Z 0000000180020268 f   libucrt:xtoa.obj
 0001:0001f33c       ??$common_xtox_s@K_W@@YAHKQEA_W_KI_N@Z 000000018002033c f   libucrt:xtoa.obj
 0001:0001fa70       ??$?RV<lambda_842d9ff0dc9ef11c61343bbaebe7f885>@@AEAV<lambda_c5860995281e5c4ce005b3de8f5874ee>@@V<lambda_d90129c13df834fdcbf8d2b88dafcf2d>@@@?$__crt_seh_guarded_call@X@@QEAAX$$QEAV<lambda_842d9ff0dc9ef11c61343bbaebe7f885>@@AEAV<lambda_c5860995281e5c4ce005b3de8f5874ee>@@$$QEAV<lambda_d90129c13df834fdcbf8d2b88dafcf2d>@@@Z 0000000180020a70 f   libucrt:fflush.obj
 0001:0001fb0c       ??$?RV<lambda_886d6c58226a84441f68b9f2b8217b83>@@AEAV<lambda_ab61a845afdef5b7c387490eaf3616ee>@@V<lambda_f7f22ab5edc0698d5f6905b0d3f44752>@@@?$__crt_seh_guarded_call@X@@QEAAX$$QEAV<lambda_886d6c58226a84441f68b9f2b8217b83>@@AEAV<lambda_ab61a845afdef5b7c387490eaf3616ee>@@$$QEAV<lambda_f7f22ab5edc0698d5f6905b0d3f44752>@@@Z 0000000180020b0c f   libucrt:fflush.obj
 0001:0001fbec       ??$?RV<lambda_c376a267cfb53b6959b3b692ec76b120>@@AEAV<lambda_9a32fed5bf61b6b509b2d3f6003082a1>@@V<lambda_572fbb9fa0ab338edf41edfd4b5fcc8d>@@@?$__crt_seh_guarded_call@H@@QEAAH$$QEAV<lambda_c376a267cfb53b6959b3b692ec76b120>@@AEAV<lambda_9a32fed5bf61b6b509b2d3f6003082a1>@@$$QEAV<lambda_572fbb9fa0ab338edf41edfd4b5fcc8d>@@@Z 0000000180020bec f   libucrt:fflush.obj
 0001:0001fc2c       ?common_flush_all@@YAH_N@Z 0000000180020c2c f   libucrt:fflush.obj
 0001:0001fdc4       ??$?RV<lambda_84ec643ea9557e2f7dc01bb0e9624395>@@AEAV<lambda_ca71763b3c0644891230e4f79ea54fa6>@@V<lambda_439a761618c59b0600e24586724d733b>@@@?$__crt_seh_guarded_call@H@@QEAAH$$QEAV<lambda_84ec643ea9557e2f7dc01bb0e9624395>@@AEAV<lambda_ca71763b3c0644891230e4f79ea54fa6>@@$$QEAV<lambda_439a761618c59b0600e24586724d733b>@@@Z 0000000180020dc4 f   libucrt:setvbuf.obj
 0001:0001fe04       ??R<lambda_ca71763b3c0644891230e4f79ea54fa6>@@QEBAHXZ 0000000180020e04 f   libucrt:setvbuf.obj
 0001:0001ff80       ??$?RV<lambda_450d765d439847d4c735a33c368b5fc0>@@AEAV<lambda_44731a7d0e6d81c3e6aa82d741081786>@@V<lambda_601a2a7da3b7a96e9554ac7215c4b07c>@@@?$__crt_seh_guarded_call@P6AXH@Z@@QEAAP6AXH@Z$$QEAV<lambda_450d765d439847d4c735a33c368b5fc0>@@AEAV<lambda_44731a7d0e6d81c3e6aa82d741081786>@@$$QEAV<lambda_601a2a7da3b7a96e9554ac7215c4b07c>@@@Z 0000000180020f80 f   libucrt:signal.obj
 0001:000202e4       ?internal_isupper_l@@YA_NHQEAU__crt_locale_pointers@@@Z 00000001800212e4 f   libucrt:tolower_toupper.obj
 0001:00020518       ??$?RV<lambda_410d79af7f07d98d83a3f525b3859a53>@@AEAV<lambda_3e16ef9562a7dcce91392c22ab16ea36>@@V<lambda_38119f0e861e05405d8a144b9b982f0a>@@@?$__crt_seh_guarded_call@X@@QEAAX$$QEAV<lambda_410d79af7f07d98d83a3f525b3859a53>@@AEAV<lambda_3e16ef9562a7dcce91392c22ab16ea36>@@$$QEAV<lambda_38119f0e861e05405d8a144b9b982f0a>@@@Z 0000000180021518 f   libucrt:wsetlocale.obj
 0001:000207f0       ?<lambda_invoker_cdecl>@<lambda_c2303d2482d7c3675ea2e24c4cfb6115>@@CAHPEBX0@Z 00000001800217f0 f   libucrt:argv_wildcards.obj
 0001:00020b08       ??$common_expand_argv_wildcards@D@@YAHQEAPEADQEAPEAPEAD@Z 0000000180021b08 f   libucrt:argv_wildcards.obj
 0001:00020d14       ??$copy_and_add_argument_to_buffer@D@@YAHQEBD0_KAEAV?$argument_list@D@?A0x5f5c8891@@@Z 0000000180021d14 f   libucrt:argv_wildcards.obj
 0001:00020e9c       ??$expand_argument_wildcards@D@@YAHQEAD0AEAV?$argument_list@D@?A0x5f5c8891@@@Z 0000000180021e9c f   libucrt:argv_wildcards.obj
 0001:000211b4       ??$?RV<lambda_efdfa57d1f175319df784efa44bb7b81>@@AEAV<lambda_5f0a4c1567f8adc6734073e5d1e1b35c>@@V<lambda_2e8a7d3640ea6ccb4c2413664c2db6fd>@@@?$__crt_seh_guarded_call@X@@QEAAX$$QEAV<lambda_efdfa57d1f175319df784efa44bb7b81>@@AEAV<lambda_5f0a4c1567f8adc6734073e5d1e1b35c>@@$$QEAV<lambda_2e8a7d3640ea6ccb4c2413664c2db6fd>@@@Z 00000001800221b4 f   libucrt:mbctype.obj
 0001:00021370       ?getSystemCP@@YAHH@Z       0000000180022370 f   libucrt:mbctype.obj
 0001:000213f0       ?setSBCS@@YAXPEAU__crt_multibyte_data@@@Z 00000001800223f0 f   libucrt:mbctype.obj
 0001:00021480       ?setSBUpLow@@YAXPEAU__crt_multibyte_data@@@Z 0000000180022480 f   libucrt:mbctype.obj
 0001:00021664       ?setmbcp_internal@@YAHH_NQEAU__acrt_ptd@@QEAPEAU__crt_multibyte_data@@@Z 0000000180022664 f   libucrt:mbctype.obj
 0001:00021828       ?update_thread_multibyte_data_internal@@YAPEAU__crt_multibyte_data@@QEAU__acrt_ptd@@QEAPEAU1@@Z 0000000180022828 f   libucrt:mbctype.obj
 0001:00021c18       ?x_ismbbtype_l@@YAHPEAU__crt_locale_pointers@@IHH@Z 0000000180022c18 f   libucrt:ismbbyte.obj
 0001:00021f5c       ?try_get_function@@YAPEAXW4function_id@?A0x391cf84c@@QEBDQEBW4module_id@2@2@Z 0000000180022f5c f   libucrt:winapi_thunks.obj
 0001:000227e0       ?initialize_inherited_file_handles_nolock@@YAXXZ 00000001800237e0 f   libucrt:ioinit.obj
 0001:000228d0       ?initialize_stdio_handles_nolock@@YAXXZ 00000001800238d0 f   libucrt:ioinit.obj
 0001:00023248       ?fp_format_a@@YAHQEBNPEAD_KQEAD2H_NIQEAU__crt_locale_pointers@@@Z 0000000180024248 f   libucrt:cvt.obj
 0001:000235b8       ?fp_format_e@@YAHQEBNQEAD_K12H_NIQEAU__crt_locale_pointers@@@Z 00000001800245b8 f   libucrt:cvt.obj
 0001:00023694       ?fp_format_e_internal@@YAHQEAD_KH_NIQEAU_strflt@@2QEAU__crt_locale_pointers@@@Z 0000000180024694 f   libucrt:cvt.obj
 0001:00023868       ?fp_format_f_internal@@YAHQEAD_KHQEAU_strflt@@_NQEAU__crt_locale_pointers@@@Z 0000000180024868 f   libucrt:cvt.obj
 0001:000239ac       ?fp_format_g@@YAHQEBNQEAD_K12H_NIQEAU__crt_locale_pointers@@@Z 00000001800249ac f   libucrt:cvt.obj
 0001:00023ae0       ?fp_format_nan_or_infinity@@YAHW4__acrt_fp_class@@_NPEAD_K1@Z 0000000180024ae0 f   libucrt:cvt.obj
 0001:00024728       ??$?RV<lambda_a37b2b86f63e897a80ea819b0eb08c01>@@AEAV<lambda_38ce7e780aa69e748d6df282ebc68efe>@@V<lambda_99fb1378e971ab6e7edea83e3a7a83a2>@@@?$__crt_seh_guarded_call@H@@QEAAH$$QEAV<lambda_a37b2b86f63e897a80ea819b0eb08c01>@@AEAV<lambda_38ce7e780aa69e748d6df282ebc68efe>@@$$QEAV<lambda_99fb1378e971ab6e7edea83e3a7a83a2>@@@Z 0000000180025728 f   libucrt:commit.obj
 0001:00024848       ?write_double_translated_ansi_nolock@@YA?AUwrite_result@?A0x17268360@@HQEBDI@Z 0000000180025848 f   libucrt:write.obj
 0001:00024d24       ?write_text_ansi_nolock@@YA?AUwrite_result@?A0x17268360@@HQEBDI@Z 0000000180025d24 f   libucrt:write.obj
 0001:00024e28       ?write_text_utf16le_nolock@@YA?AUwrite_result@?A0x17268360@@HQEBDI@Z 0000000180025e28 f   libucrt:write.obj
 0001:00024f44       ?write_text_utf8_nolock@@YA?AUwrite_result@?A0x17268360@@HQEBDI@Z 0000000180025f44 f   libucrt:write.obj
 0001:000254d0       ?__acrt_LCMapStringA_stat@@YAHPEAU__crt_locale_pointers@@PEB_WKPEBDHPEADHHH@Z 00000001800264d0 f   libucrt:lcmapstringa.obj
 0001:000259f8       ?free_crt_array_internal@@YAXQEAPEBX_K@Z 00000001800269f8 f   libucrt:inittime.obj
 0001:00025dbc       fallbackMethod             0000000180026dbc f   libucrt:strpbrk.obj
 0001:00026184       $LN78                      0000000180027184     libucrt:strpbrk.obj
 0001:000261c0       $LN77                      00000001800271c0     libucrt:strpbrk.obj
 0001:00026200       $LN76                      0000000180027200     libucrt:strpbrk.obj
 0001:000262dc       ?initialize_multibyte@@YAHXZ 00000001800272dc f   libucrt:multibyte_initializer.obj
 0001:000263ac       ?GetTableIndexFromLocaleName@@YAHPEB_W@Z 00000001800273ac f   libucrt:lcidtoname_downlevel.obj
 0001:00028200       memcpy_s                   0000000180029200 f   libucrt:cfout.obj
 0001:00028288       ??$write_buffer_nolock@D@@YA_NDV__crt_stdio_stream@@@Z 0000000180029288 f   libucrt:_flsbuf.obj
 0001:0002836c       ??$write_buffer_nolock@_W@@YA_N_WV__crt_stdio_stream@@@Z 000000018002936c f   libucrt:_flsbuf.obj
 0001:00028454       ?stream_is_at_end_of_file_nolock@@YA_NV__crt_stdio_stream@@@Z 0000000180029454 f   libucrt:_flsbuf.obj
 0001:00028794       ??$common_lseek@_J@@YA_JH_JH@Z 0000000180029794 f   libucrt:lseek.obj
 0001:00028884       ??$common_lseek_nolock@_J@@YA_JH_JH@Z 0000000180029884 f   libucrt:lseek.obj
 0001:00028cf0       $$000000                   0000000180029cf0     libucrt:log10.obj
 0001:00029304       ??$?RV<lambda_751a882b2c74d4b022dec766aa51a29a>@@AEAV<lambda_628dfdc04ba53c8bfc02c9951375f3f5>@@V<lambda_f6c7be5f7998530c34de24c7437d6b54>@@@?$__crt_seh_guarded_call@H@@QEAAH$$QEAV<lambda_751a882b2c74d4b022dec766aa51a29a>@@AEAV<lambda_628dfdc04ba53c8bfc02c9951375f3f5>@@$$QEAV<lambda_f6c7be5f7998530c34de24c7437d6b54>@@@Z 000000018002a304 f   libucrt:close.obj
 0001:000299ac       _call_matherr              000000018002a9ac f   libucrt:libm_error.obj
 0001:00029a14       _exception_enabled         000000018002aa14 f   libucrt:libm_error.obj
 0001:00029cb0       _log_special_common        000000018002acb0 f   libucrt:log_special.obj
 0001:00029d50       $$000000                   000000018002ad50     libucrt:fpsr.obj
 0001:0002a9a0       $$000000                   000000018002b9a0     LIBCMT:chkstk.obj
 0001:0002aa10       $$000000                   000000018002ba10     libvcruntime:memcmp.obj
 0001:0002ac20       $$000000                   000000018002bc20     LIBCMT:guard_dispatch.obj
 0001:0002ac40       __scrt_is_nonwritable_in_current_image$filt$0 000000018002bc40 f   LIBCMT:utility.obj
 0001:0002ac58       ?fin$0@?0??dllmain_crt_process_attach@@YAHQEAUHINSTANCE__@@QEAX@Z@4HA 000000018002bc58 f   LIBCMT:dll_dllmain.obj
 0001:0002ac6f       ?fin$0@?0??dllmain_crt_process_detach@@YAH_N@Z@4HA 000000018002bc6f f   LIBCMT:dll_dllmain.obj
 0001:0002ac8b       ?filt$0@?0??dllmain_dispatch@@YAHQEAUHINSTANCE__@@KQEAX@Z@4HA 000000018002bc8b f   LIBCMT:dll_dllmain.obj
 0001:0002acc1       __DestructExceptionObject$filt$0 000000018002bcc1 f   libvcruntime:ehhelpers.obj
 0001:0002acd9       _query_new_handler$fin$0   000000018002bcd9 f   libucrt:new_handler.obj
 0001:0002acef       ?fin$0@?0???$?RV<lambda_638799b9deba96c50f710eeac98168cd>@@AEAV<lambda_22ebabd17bc4fa466a2aca6d8deb888d>@@V<lambda_a6f7d7db0129f75315ebf26d50c089f1>@@@?$__crt_seh_guarded_call@H@@QEAAH$$QEAV<lambda_638799b9deba96c50f710eeac98168cd>@@AEAV<lambda_22ebabd17bc4fa466a2aca6d8deb888d>@@$$QEAV<lambda_a6f7d7db0129f75315ebf26d50c089f1>@@@Z@4HA 000000018002bcef f   libucrt:onexit.obj
 0001:0002acef       ?fin$0@?0???$?RV<lambda_f2e299630e499de9f9a165e60fcd3db5>@@AEAV<lambda_2ae9d31cdba2644fcbeaf08da7c24588>@@V<lambda_40d01ff24d0e7b3814fdbdcee8eab3c7>@@@?$__crt_seh_guarded_call@X@@QEAAX$$QEAV<lambda_f2e299630e499de9f9a165e60fcd3db5>@@AEAV<lambda_2ae9d31cdba2644fcbeaf08da7c24588>@@$$QEAV<lambda_40d01ff24d0e7b3814fdbdcee8eab3c7>@@@Z@4HA 000000018002bcef f   libucrt:per_thread_data.obj
 0001:0002acef       ?fin$0@?0???$?RV<lambda_450d765d439847d4c735a33c368b5fc0>@@AEAV<lambda_44731a7d0e6d81c3e6aa82d741081786>@@V<lambda_601a2a7da3b7a96e9554ac7215c4b07c>@@@?$__crt_seh_guarded_call@P6AXH@Z@@QEAAP6AXH@Z$$QEAV<lambda_450d765d439847d4c735a33c368b5fc0>@@AEAV<lambda_44731a7d0e6d81c3e6aa82d741081786>@@$$QEAV<lambda_601a2a7da3b7a96e9554ac7215c4b07c>@@@Z@4HA 000000018002bcef f   libucrt:signal.obj
 0001:0002acef       ?fin$0@?0???$?RV<lambda_efdfa57d1f175319df784efa44bb7b81>@@AEAV<lambda_5f0a4c1567f8adc6734073e5d1e1b35c>@@V<lambda_2e8a7d3640ea6ccb4c2413664c2db6fd>@@@?$__crt_seh_guarded_call@X@@QEAAX$$QEAV<lambda_efdfa57d1f175319df784efa44bb7b81>@@AEAV<lambda_5f0a4c1567f8adc6734073e5d1e1b35c>@@$$QEAV<lambda_2e8a7d3640ea6ccb4c2413664c2db6fd>@@@Z@4HA 000000018002bcef f   libucrt:mbctype.obj
 0001:0002acef       ?fin$0@?0???$?RV<lambda_7777bce6b2f8c936911f934f8298dc43>@@AEAV<lambda_f03950bc5685219e0bcd2087efbe011e>@@V<lambda_3883c3dff614d5e0c5f61bb1ac94921c>@@@?$__crt_seh_guarded_call@H@@QEAAH$$QEAV<lambda_7777bce6b2f8c936911f934f8298dc43>@@AEAV<lambda_f03950bc5685219e0bcd2087efbe011e>@@$$QEAV<lambda_3883c3dff614d5e0c5f61bb1ac94921c>@@@Z@4HA 000000018002bcef f   libucrt:onexit.obj
 0001:0002acef       ?fin$0@?0???$?RV<lambda_d80eeec6fff315bfe5c115232f3240e3>@@AEAV<lambda_6e4b09c48022b2350581041d5f6b0c4c>@@V<lambda_2358e3775559c9db80273638284d5e45>@@@?$__crt_seh_guarded_call@X@@QEAAX$$QEAV<lambda_d80eeec6fff315bfe5c115232f3240e3>@@AEAV<lambda_6e4b09c48022b2350581041d5f6b0c4c>@@$$QEAV<lambda_2358e3775559c9db80273638284d5e45>@@@Z@4HA 000000018002bcef f   libucrt:exit.obj
 0001:0002acef       ?fin$0@?0???$?RV<lambda_0ae27a3a962d80f24befdcbee591983d>@@AEAV<lambda_8d0ee55de4b1038c4002e0adecdf1839>@@V<lambda_dc504788e8f1664fe9b84e20bfb512f2>@@@?$__crt_seh_guarded_call@X@@QEAAX$$QEAV<lambda_0ae27a3a962d80f24befdcbee591983d>@@AEAV<lambda_8d0ee55de4b1038c4002e0adecdf1839>@@$$QEAV<lambda_dc504788e8f1664fe9b84e20bfb512f2>@@@Z@4HA 000000018002bcef f   libucrt:per_thread_data.obj
 0001:0002acef       ?fin$0@?0???$?RV<lambda_2d41944a1d46af3157314b8a01080d33>@@AEAV<lambda_8f455de75cd7d7f24b4096f044d8b9e6>@@V<lambda_aa500f224e6afead328df44964fe2772>@@@?$__crt_seh_guarded_call@X@@QEAAX$$QEAV<lambda_2d41944a1d46af3157314b8a01080d33>@@AEAV<lambda_8f455de75cd7d7f24b4096f044d8b9e6>@@$$QEAV<lambda_aa500f224e6afead328df44964fe2772>@@@Z@4HA 000000018002bcef f   libucrt:per_thread_data.obj
 0001:0002acef       ?fin$0@?0???$?RV<lambda_aa87e3671a710a21b5dc78c0bdf72e11>@@AEAV<lambda_92619d2358a28f41a33ba319515a20b9>@@V<lambda_6992ecaafeb10aed2b74cb1fae11a551>@@@?$__crt_seh_guarded_call@X@@QEAAX$$QEAV<lambda_aa87e3671a710a21b5dc78c0bdf72e11>@@AEAV<lambda_92619d2358a28f41a33ba319515a20b9>@@$$QEAV<lambda_6992ecaafeb10aed2b74cb1fae11a551>@@@Z@4HA 000000018002bcef f   libucrt:per_thread_data.obj
 0001:0002ad09       ?filt$0@?0???R<lambda_6e4b09c48022b2350581041d5f6b0c4c>@@QEBA@XZ@4HA 000000018002bd09 f   libucrt:exit.obj
 0001:0002ad24       ?fin$0@?0???$?RV<lambda_c376a267cfb53b6959b3b692ec76b120>@@AEAV<lambda_9a32fed5bf61b6b509b2d3f6003082a1>@@V<lambda_572fbb9fa0ab338edf41edfd4b5fcc8d>@@@?$__crt_seh_guarded_call@H@@QEAAH$$QEAV<lambda_c376a267cfb53b6959b3b692ec76b120>@@AEAV<lambda_9a32fed5bf61b6b509b2d3f6003082a1>@@$$QEAV<lambda_572fbb9fa0ab338edf41edfd4b5fcc8d>@@@Z@4HA 000000018002bd24 f   libucrt:fflush.obj
 0001:0002ad24       ?fin$0@?0???$?RV<lambda_84ec643ea9557e2f7dc01bb0e9624395>@@AEAV<lambda_ca71763b3c0644891230e4f79ea54fa6>@@V<lambda_439a761618c59b0600e24586724d733b>@@@?$__crt_seh_guarded_call@H@@QEAAH$$QEAV<lambda_84ec643ea9557e2f7dc01bb0e9624395>@@AEAV<lambda_ca71763b3c0644891230e4f79ea54fa6>@@$$QEAV<lambda_439a761618c59b0600e24586724d733b>@@@Z@4HA 000000018002bd24 f   libucrt:setvbuf.obj
 0001:0002ad24       ?fin$0@?0???$?RV<lambda_842d9ff0dc9ef11c61343bbaebe7f885>@@AEAV<lambda_c5860995281e5c4ce005b3de8f5874ee>@@V<lambda_d90129c13df834fdcbf8d2b88dafcf2d>@@@?$__crt_seh_guarded_call@X@@QEAAX$$QEAV<lambda_842d9ff0dc9ef11c61343bbaebe7f885>@@AEAV<lambda_c5860995281e5c4ce005b3de8f5874ee>@@$$QEAV<lambda_d90129c13df834fdcbf8d2b88dafcf2d>@@@Z@4HA 000000018002bd24 f   libucrt:fflush.obj
 0001:0002ad24       ?fin$0@?0???$?RV<lambda_0d412022a4b28cc8a401ea49574e8ae6>@@AEAV<lambda_a775ed57af18ba8e4d5dc780aa9068fe>@@V<lambda_975a71a6baa488a08f4e15f6b0339b9e>@@@?$__crt_seh_guarded_call@H@@QEAAH$$QEAV<lambda_0d412022a4b28cc8a401ea49574e8ae6>@@AEAV<lambda_a775ed57af18ba8e4d5dc780aa9068fe>@@$$QEAV<lambda_975a71a6baa488a08f4e15f6b0339b9e>@@@Z@4HA 000000018002bd24 f   libucrt:output.obj
 0001:0002ad3f       ?fin$0@?0???$?RV<lambda_886d6c58226a84441f68b9f2b8217b83>@@AEAV<lambda_ab61a845afdef5b7c387490eaf3616ee>@@V<lambda_f7f22ab5edc0698d5f6905b0d3f44752>@@@?$__crt_seh_guarded_call@X@@QEAAX$$QEAV<lambda_886d6c58226a84441f68b9f2b8217b83>@@AEAV<lambda_ab61a845afdef5b7c387490eaf3616ee>@@$$QEAV<lambda_f7f22ab5edc0698d5f6905b0d3f44752>@@@Z@4HA 000000018002bd3f f   libucrt:fflush.obj
 0001:0002ad5c       raise$fin$0                000000018002bd5c f   libucrt:signal.obj
 0001:0002ad7d       ?fin$0@?0???$?RV<lambda_410d79af7f07d98d83a3f525b3859a53>@@AEAV<lambda_3e16ef9562a7dcce91392c22ab16ea36>@@V<lambda_38119f0e861e05405d8a144b9b982f0a>@@@?$__crt_seh_guarded_call@X@@QEAAX$$QEAV<lambda_410d79af7f07d98d83a3f525b3859a53>@@AEAV<lambda_3e16ef9562a7dcce91392c22ab16ea36>@@$$QEAV<lambda_38119f0e861e05405d8a144b9b982f0a>@@@Z@4HA 000000018002bd7d f   libucrt:wsetlocale.obj
 0001:0002ad97       ?fin$0@?0??update_thread_multibyte_data_internal@@YAPEAU__crt_multibyte_data@@QEAU__acrt_ptd@@QEAPEAU1@@Z@4HA 000000018002bd97 f   libucrt:mbctype.obj
 0001:0002adb0       __acrt_initialize_lowio$fin$0 000000018002bdb0 f   libucrt:ioinit.obj
 0001:0002adb0       __acrt_lowio_ensure_fh_exists$fin$0 000000018002bdb0 f   libucrt:osfinfo.obj
 0001:0002adc9       __acrt_update_thread_locale_data$fin$0 000000018002bdc9 f   libucrt:locale_refcounting.obj
 0001:0002ade2       _fcloseall$fin$0           000000018002bde2 f   libucrt:closeall.obj
 0001:0002adfb       ?fin$0@?0???$?RV<lambda_751a882b2c74d4b022dec766aa51a29a>@@AEAV<lambda_628dfdc04ba53c8bfc02c9951375f3f5>@@V<lambda_f6c7be5f7998530c34de24c7437d6b54>@@@?$__crt_seh_guarded_call@H@@QEAAH$$QEAV<lambda_751a882b2c74d4b022dec766aa51a29a>@@AEAV<lambda_628dfdc04ba53c8bfc02c9951375f3f5>@@$$QEAV<lambda_f6c7be5f7998530c34de24c7437d6b54>@@@Z@4HA 000000018002bdfb f   libucrt:close.obj
 0001:0002adfb       ?fin$0@?0???$?RV<lambda_a37b2b86f63e897a80ea819b0eb08c01>@@AEAV<lambda_38ce7e780aa69e748d6df282ebc68efe>@@V<lambda_99fb1378e971ab6e7edea83e3a7a83a2>@@@?$__crt_seh_guarded_call@H@@QEAAH$$QEAV<lambda_a37b2b86f63e897a80ea819b0eb08c01>@@AEAV<lambda_38ce7e780aa69e748d6df282ebc68efe>@@$$QEAV<lambda_99fb1378e971ab6e7edea83e3a7a83a2>@@@Z@4HA 000000018002bdfb f   libucrt:commit.obj
 0001:0002ae15       ?fin$0@?0???$common_lseek@_J@@YA_JH_JH@Z@4HA 000000018002be15 f   libucrt:lseek.obj
 0001:0002ae15       _write$fin$0               000000018002be15 f   libucrt:write.obj
 0001:0002ae2c       fclose$fin$0               000000018002be2c f   libucrt:fclose.obj
 0001:0002ae44       _ctrlfp$filt$0             000000018002be44 f   libucrt:fpctrl.obj
 0001:0002ae70       _IsNonwritableInCurrentImage$filt$0 000000018002be70 f   LIBCMT:pesect.obj
 0001:0002ae90       ??__F?object_template@Iconv@?A0xd3ef0bfb@@2V?$Persistent@VObjectTemplate@v8@@V?$NonCopyablePersistentTraits@VObjectTemplate@v8@@@2@@Nan@@A@@YAXXZ 000000018002be90 f   binding.obj
 0002:00000270       ??object_template$initializer$@Iconv@?A0xd3ef0bfb@@2P6AXXZEA@@3P6AXXZEA 000000018002c270     binding.obj
 0002:00000308       GS_ExceptionPointers       000000018002c308     LIBCMT:gs_report.obj
 0002:000003b0       ?ExceptionTemplate@?1??_CxxThrowException@@9@4UEHExceptionRecord@@B 000000018002c3b0     libvcruntime:throw.obj
 0002:000003f0       ?module_names@?A0xa3f614c4@@3QBQEB_WB 000000018002c3f0     libvcruntime:winapi_downlevel.obj
 0002:000004c0       ?candidate_modules@?1??try_get_FlsAlloc@@YAP6AKP6AXPEAX@Z@ZXZ@4QBW4module_id@?A0xa3f614c4@@B 000000018002c4c0     libvcruntime:winapi_downlevel.obj
 0002:000004d8       ?candidate_modules@?1??try_get_FlsFree@@YAP6AHK@ZXZ@4QBW4module_id@?A0xa3f614c4@@B 000000018002c4d8     libvcruntime:winapi_downlevel.obj
 0002:000004e8       ?candidate_modules@?1??try_get_FlsGetValue@@YAP6APEAXK@ZXZ@4QBW4module_id@?A0xa3f614c4@@B 000000018002c4e8     libvcruntime:winapi_downlevel.obj
 0002:00000500       ?candidate_modules@?1??try_get_FlsSetValue@@YAP6AHKPEAX@ZXZ@4QBW4module_id@?A0xa3f614c4@@B 000000018002c500     libvcruntime:winapi_downlevel.obj
 0002:00000518       ?candidate_modules@?1??try_get_InitializeCriticalSectionEx@@YAP6AHPEAU_RTL_CRITICAL_SECTION@@KK@ZXZ@4QBW4module_id@?A0xa3f614c4@@B 000000018002c518     libvcruntime:winapi_downlevel.obj
 0002:00000550       ?tokenTable@@3QBQEBDB      000000018002c550     libvcruntime:undname.obj
 0002:000005d0       ?nameTable@@3QBQEBDB       000000018002c5d0     libvcruntime:undname.obj
 0002:00000868       ?rttiTable@@3QBQEBDB       000000018002c868     libvcruntime:undname.obj
 0002:00000f30       ?errtable@@3QBUerrentry@?A0x31fdb9ec@@B 000000018002cf30     libucrt:errno.obj
 0002:00001480       __acrt_initializers        000000018002d480     libucrt:initialization.obj
 0002:00001c80       ?_mb_locale_names@@3QBQEB_WB 000000018002dc80     libucrt:mbctype.obj
 0002:00001ce0       ?module_names@?A0x391cf84c@@3QBQEB_WB 000000018002dce0     libucrt:winapi_thunks.obj
 0002:00002288       ?candidate_modules@?1??try_get_AreFileApisANSI@@YAP6AHXZXZ@4QBW4module_id@?A0x391cf84c@@B 000000018002e288     libucrt:winapi_thunks.obj
 0002:000022a0       ?candidate_modules@?1??try_get_FlsAlloc@@YAP6AKP6AXPEAX@Z@ZXZ@4QBW4module_id@?A0x391cf84c@@B 000000018002e2a0     libucrt:winapi_thunks.obj
 0002:000022b8       ?candidate_modules@?1??try_get_FlsFree@@YAP6AHK@ZXZ@4QBW4module_id@?A0x391cf84c@@B 000000018002e2b8     libucrt:winapi_thunks.obj
 0002:000022c8       ?candidate_modules@?1??try_get_FlsGetValue@@YAP6APEAXK@ZXZ@4QBW4module_id@?A0x391cf84c@@B 000000018002e2c8     libucrt:winapi_thunks.obj
 0002:000022e0       ?candidate_modules@?1??try_get_FlsSetValue@@YAP6AHKPEAX@ZXZ@4QBW4module_id@?A0x391cf84c@@B 000000018002e2e0     libucrt:winapi_thunks.obj
 0002:000022f8       ?candidate_modules@?1??try_get_GetActiveWindow@@YAP6APEAUHWND__@@XZXZ@4QBW4module_id@?A0x391cf84c@@B 000000018002e2f8     libucrt:winapi_thunks.obj
 0002:00002310       ?candidate_modules@?1??try_get_GetLastActivePopup@@YAP6APEAUHWND__@@PEAU2@@ZXZ@4QBW4module_id@?A0x391cf84c@@B 000000018002e310     libucrt:winapi_thunks.obj
 0002:00002330       ?candidate_modules@?1??try_get_GetProcessWindowStation@@YAP6APEAUHWINSTA__@@XZXZ@4QBW4module_id@?A0x391cf84c@@B 000000018002e330     libucrt:winapi_thunks.obj
 0002:00002350       ?candidate_modules@?1??try_get_GetUserObjectInformationW@@YAP6AHPEAXH0KPEAK@ZXZ@4QBW4module_id@?A0x391cf84c@@B 000000018002e350     libucrt:winapi_thunks.obj
 0002:00002378       ?candidate_modules@?1??try_get_InitializeCriticalSectionEx@@YAP6AHPEAU_RTL_CRITICAL_SECTION@@KK@ZXZ@4QBW4module_id@?A0x391cf84c@@B 000000018002e378     libucrt:winapi_thunks.obj
 0002:000023a0       ?candidate_modules@?1??try_get_LCMapStringEx@@YAP6AHPEB_WK0HPEA_WHPEAU_nlsversioninfo@@PEAX_J@ZXZ@4QBW4module_id@?A0x391cf84c@@B 000000018002e3a0     libucrt:winapi_thunks.obj
 0002:000023b8       ?candidate_modules@?1??try_get_LocaleNameToLCID@@YAP6AKPEB_WK@ZXZ@4QBW4module_id@?A0x391cf84c@@B 000000018002e3b8     libucrt:winapi_thunks.obj
 0002:000023d8       ?candidate_modules@?1??try_get_MessageBoxA@@YAP6AHPEAUHWND__@@PEBD1I@ZXZ@4QBW4module_id@?A0x391cf84c@@B 000000018002e3d8     libucrt:winapi_thunks.obj
 0002:000023f0       ?candidate_modules@?1??try_get_MessageBoxW@@YAP6AHPEAUHWND__@@PEB_W1I@ZXZ@4QBW4module_id@?A0x391cf84c@@B 000000018002e3f0     libucrt:winapi_thunks.obj
 0002:00002404       ?candidate_modules@?1??try_get_AppPolicyGetProcessTerminationMethod@@YAP6AJPEAXPEAW4AppPolicyProcessTerminationMethod@@@ZXZ@4QBW4module_id@?A0x391cf84c@@B 000000018002e404     libucrt:winapi_thunks.obj
 0002:00002430       ?candidate_modules@?1??try_get_AppPolicyGetShowDeveloperDiagnostic@@YAP6AJPEAXPEAW4AppPolicyShowDeveloperDiagnostic@@@ZXZ@4QBW4module_id@?A0x391cf84c@@B 000000018002e430     libucrt:winapi_thunks.obj
 0002:0000245c       ?candidate_modules@?1??try_get_AppPolicyGetWindowingModel@@YAP6AJPEAXPEAW4AppPolicyWindowingModel@@@ZXZ@4QBW4module_id@?A0x391cf84c@@B 000000018002e45c     libucrt:winapi_thunks.obj
 0002:00002cf0       ?LcidToLocaleNameTable@?A0x881e4c05@@3QBULcidToLocaleName@1@B 000000018002ecf0     libucrt:lcidtoname_downlevel.obj
 0002:00004750       ?LocaleNameToIndexTable@?A0x881e4c05@@3QBULocaleNameIndex@1@B 0000000180030750     libucrt:lcidtoname_downlevel.obj
 0002:000069f0       __real_ninf                00000001800329f0     libucrt:log10.obj
 0002:00006a00       __real_inf                 0000000180032a00     libucrt:log10.obj
 0002:00006a10       __real_neg_qnan            0000000180032a10     libucrt:log10.obj
 0002:00006a20       __real_qnanbit             0000000180032a20     libucrt:log10.obj
 0002:00006a30       __int_1023                 0000000180032a30     libucrt:log10.obj
 0002:00006a40       __mask_001                 0000000180032a40     libucrt:log10.obj
 0002:00006a50       __mask_mant                0000000180032a50     libucrt:log10.obj
 0002:00006a60       __mask_mant_top8           0000000180032a60     libucrt:log10.obj
 0002:00006a70       __mask_mant9               0000000180032a70     libucrt:log10.obj
 0002:00006a80       __real_log10_e             0000000180032a80     libucrt:log10.obj
 0002:00006a90       __real_log10_e_lead        0000000180032a90     libucrt:log10.obj
 0002:00006aa0       __real_log10_e_tail        0000000180032aa0     libucrt:log10.obj
 0002:00006ab0       __real_log10_2_lead        0000000180032ab0     libucrt:log10.obj
 0002:00006ac0       __real_log10_2_tail        0000000180032ac0     libucrt:log10.obj
 0002:00006ad0       __real_two                 0000000180032ad0     libucrt:log10.obj
 0002:00006ae0       __real_one                 0000000180032ae0     libucrt:log10.obj
 0002:00006af0       __real_half                0000000180032af0     libucrt:log10.obj
 0002:00006b00       __mask_100                 0000000180032b00     libucrt:log10.obj
 0002:00006b10       __real_1_over_512          0000000180032b10     libucrt:log10.obj
 0002:00006b20       __real_1_over_2            0000000180032b20     libucrt:log10.obj
 0002:00006b30       __real_1_over_3            0000000180032b30     libucrt:log10.obj
 0002:00006b40       __real_1_over_4            0000000180032b40     libucrt:log10.obj
 0002:00006b50       __real_1_over_5            0000000180032b50     libucrt:log10.obj
 0002:00006b60       __real_1_over_6            0000000180032b60     libucrt:log10.obj
 0002:00006b70       __real_neg_1023            0000000180032b70     libucrt:log10.obj
 0002:00006b80       __mask_2045                0000000180032b80     libucrt:log10.obj
 0002:00006b90       __real_threshold           0000000180032b90     libucrt:log10.obj
 0002:00006ba0       __real_near_one_lt         0000000180032ba0     libucrt:log10.obj
 0002:00006bb0       __real_near_one_gt         0000000180032bb0     libucrt:log10.obj
 0002:00006bc0       __real_min_norm            0000000180032bc0     libucrt:log10.obj
 0002:00006bd0       __real_notsign             0000000180032bd0     libucrt:log10.obj
 0002:00006be0       __real_ca1                 0000000180032be0     libucrt:log10.obj
 0002:00006bf0       __real_ca2                 0000000180032bf0     libucrt:log10.obj
 0002:00006c00       __real_ca3                 0000000180032c00     libucrt:log10.obj
 0002:00006c10       __real_ca4                 0000000180032c10     libucrt:log10.obj
 0002:00006c20       __mask_lower               0000000180032c20     libucrt:log10.obj
 0002:00006c30       __flag_x_zero              0000000180032c30     libucrt:log10.obj
 0002:00006c34       __flag_x_neg               0000000180032c34     libucrt:log10.obj
 0002:00006c38       __flag_x_nan               0000000180032c38     libucrt:log10.obj
 0002:00008490       __real@433fffffffffffff    0000000180034490     libucrt:fpsr.obj
 0002:00008498       __real@c33fffffffffffff    0000000180034498     libucrt:fpsr.obj
 0002:00008750       cp50221_0208_ext_page33    0000000180034750     iconv.obj
 0002:00008820       hkscs2001_uni2indx_page289 0000000180034820     iconv.obj
 0002:0000889c       hkscs2008_uni2indx_page289 000000018003489c     iconv.obj
 0002:000088a0       nextstep_2uni              00000001800348a0     iconv.obj
 0002:000089a0       mac_romania_page00         00000001800349a0     iconv.obj
 0002:00008a98       isoir165ext_uni2indx_pageff 0000000180034a98     iconv.obj
 0002:00008aac       hkscs1999_uni2indx_pagef9  0000000180034aac     iconv.obj
 0002:00008ab0       cp1133_page0e              0000000180034ab0     iconv.obj
 0002:00008b10       iso8859_14_2uni            0000000180034b10     iconv.obj
 0002:00008bd0       mac_iceland_page20         0000000180034bd0     iconv.obj
 0002:00008c08       cp864_page00               0000000180034c08     iconv.obj
 0002:00008c10       jisx0208_2charset          0000000180034c10     iconv.obj
 0002:0000c1d0       jisx0213_to_ucs_main       00000001800381d0     iconv.obj
 0002:000119f0       cns11643_15_2uni_page21    000000018003d9f0     iconv.obj
 0002:000151f8       atarist_page03             00000001800411f8     iconv.obj
 0002:00015230       hkscs2001_uni2indx_page70  0000000180041230     iconv.obj
 0002:00015360       tcvn_page00                0000000180041360     iconv.obj
 0002:00015478       iso8859_7_page00           0000000180041478     iconv.obj
 0002:00015498       mac_hebrew_pagefb          0000000180041498     iconv.obj
 0002:000154d0       ?asso_values@?1??aliases_hash@@9@9 00000001800414d0     iconv.obj
 0002:000155d0       uhc_1_2charset_main        00000001800415d0     iconv.obj
 0002:00015630       cp850_2uni                 0000000180041630     iconv.obj
 0002:00015730       hkscs2004_uni2indx_page290 0000000180041730     iconv.obj
 0002:00015750       isoir165ext_uni2indx_page9e 0000000180041750     iconv.obj
 0002:000157b4       tcvn_comb_table            00000001800417b4     iconv.obj
 0002:000157c0       uhc_2_2uni_pagea1          00000001800417c0     iconv.obj
 0002:000163f8       mac_iceland_page21         00000001800423f8     iconv.obj
 0002:00016400       isoir165ext_uni2indx_page00 0000000180042400     iconv.obj
 0002:00016480       georgian_ps_page01         0000000180042480     iconv.obj
 0002:000164c8       cp950ext_uni2indx_page60   00000001800424c8     iconv.obj
 0002:000164e0       mac_thai_page0e            00000001800424e0     iconv.obj
 0002:00016540       koi8_r_page22              0000000180042540     iconv.obj
 0002:00016590       mulelao_2uni               0000000180042590     iconv.obj
 0002:00016650       cp775_page25               0000000180042650     iconv.obj
 0002:000166f8       cp775_page20               00000001800426f8     iconv.obj
 0002:00016700       cp855_page25               0000000180042700     iconv.obj
 0002:000167a8       jamo_initial               00000001800427a8     iconv.obj
 0002:000167c8       cp866_page22               00000001800427c8     iconv.obj
 0002:000167d0       mac_iceland_2uni           00000001800427d0     iconv.obj
 0002:000168d0       cp856_page25               00000001800428d0     iconv.obj
 0002:00016978       hkscs2004_uni2indx_page270 0000000180042978     iconv.obj
 0002:000169b0       cp862_page22               00000001800429b0     iconv.obj
 0002:00016a00       hkscs2008_uni2indx_page25d 0000000180042a00     iconv.obj
 0002:00016a30       big5_2uni_pagea1           0000000180042a30     iconv.obj
 0002:00019a08       hkscs2004_uni2indx_page28b 0000000180045a08     iconv.obj
 0002:00019a38       hkscs2008_uni2indx_page90  0000000180045a38     iconv.obj
 0002:00019a50       big5_uni2indx_page24       0000000180045a50     iconv.obj
 0002:00019ae4       hkscs2004_uni2indx_page24b 0000000180045ae4     iconv.obj
 0002:00019ae8       mac_turkish_page21         0000000180045ae8     iconv.obj
 0002:00019af0       viscii_page1e              0000000180045af0     iconv.obj
 0002:00019b50       cns11643_inv_uni2indx_page24 0000000180045b50     iconv.obj
 0002:00019be4       hkscs2001_uni2indx_page287 0000000180045be4     iconv.obj
 0002:00019be8       gb2312_uni2indx_pageff     0000000180045be8     iconv.obj
 0002:00019c24       hkscs2001_uni2indx_page271 0000000180045c24     iconv.obj
 0002:00019c28       hkscs2004_uni2indx_page85  0000000180045c28     iconv.obj
 0002:00019c50       isoir165ext_uni2indx_page7e 0000000180045c50     iconv.obj
 0002:0001a184       hkscs2001_uni2indx_page245 0000000180046184     iconv.obj
 0002:0001a188       mac_ukraine_page21         0000000180046188     iconv.obj
 0002:0001a1a0       hkscs2001_uni2indx_page85  00000001800461a0     iconv.obj
 0002:0001a1e4       cp1258_comb_table          00000001800461e4     iconv.obj
 0002:0001a1f0       mac_cyrillic_2uni          00000001800461f0     iconv.obj
 0002:0001a2f0       cp922_page01               00000001800462f0     iconv.obj
 0002:0001a310       ksc5601_uni2indx_pageac    0000000180046310     iconv.obj
 0002:0001adf8       pt154_page20               0000000180046df8     iconv.obj
 0002:0001ae10       cp1131_2uni                0000000180046e10     iconv.obj
 0002:0001af10       atarist_2uni               0000000180046f10     iconv.obj
 0002:0001b010       koi8_ru_page00             0000000180047010     iconv.obj
 0002:0001b068       mac_croatian_page02        0000000180047068     iconv.obj
 0002:0001b088       hkscs2008_uni2indx_page258 0000000180047088     iconv.obj
 0002:0001b0c0       hkscs1999_2charset         00000001800470c0     iconv.obj
 0002:0001d574       big5_uni2indx_pagefa       0000000180049574     iconv.obj
 0002:0001d578       cp1257_page02              0000000180049578     iconv.obj
 0002:0001d598       hkscs2004_uni2indx_page25a 0000000180049598     iconv.obj
 0002:0001d5b0       hkscs1999_2uni_pagef9      00000001800495b0     iconv.obj
 0002:0001dd10       uhc_1_2charset             0000000180049d10     iconv.obj
 0002:0001f350       cns11643_6_2uni_page21     000000018004b350     iconv.obj
 0002:00022538       cp1253_page20              000000018004e538     iconv.obj
 0002:00022568       hkscs2008_uni2indx_page260 000000018004e568     iconv.obj
 0002:00022580       cns11643_15_2uni_upages    000000018004e580     iconv.obj
 0002:00022978       georgian_academy_page20    000000018004e978     iconv.obj
 0002:000229a8       cp1129_page03              000000018004e9a8     iconv.obj
 0002:000229d0       gbkext2_2uni_pagea8        000000018004e9d0     iconv.obj
 0002:00026a70       cp1256_2uni                0000000180052a70     iconv.obj
 0002:00026b70       cp1252_page01              0000000180052b70     iconv.obj
 0002:00026bb8       hkscs2008_uni2indx_page34  0000000180052bb8     iconv.obj
 0002:00026bf8       cp936ext_pagefe            0000000180052bf8     iconv.obj
 0002:00026c28       hkscs1999_uni2indx_page04  0000000180052c28     iconv.obj
 0002:00026c40       cns11643_2_2uni_page21     0000000180052c40     iconv.obj
 0002:0002a808       georgian_academy_page02    0000000180056808     iconv.obj
 0002:0002a828       mac_cyrillic_page21        0000000180056828     iconv.obj
 0002:0002a840       cns11643_4b_2uni_page40    0000000180056840     iconv.obj
 0002:0002ca80       cjk_variants_indx          0000000180058a80     iconv.obj
 0002:00036e80       hkscs2004_uni2indx_page9f  0000000180062e80     iconv.obj
 0002:00036eb0       cp857_page25               0000000180062eb0     iconv.obj
 0002:00036f58       iso8859_14_page01_0        0000000180062f58     iconv.obj
 0002:00036f78       hkscs2008_uni2indx_page21d 0000000180062f78     iconv.obj
 0002:00036f90       uhc_2_uni2indx_pagec8      0000000180062f90     iconv.obj
 0002:00037380       hkscs1999_uni2indx_page21  0000000180063380     iconv.obj
 0002:000373c0       hkscs1999_2uni_upages      00000001800633c0     iconv.obj
 0002:000382f8       cp1161_page00              00000001800642f8     iconv.obj
 0002:00038308       cp1125_page00              0000000180064308     iconv.obj
 0002:00038320       cp775_2uni                 0000000180064320     iconv.obj
 0002:00038420       cp50221_0208_ext_page21    0000000180064420     iconv.obj
 0002:00038480       hkscs1999_uni2indx_page34  0000000180064480     iconv.obj
 0002:00039f70       jisx0212_2uni_page30       0000000180065f70     iconv.obj
 0002:0003ccc8       mac_iceland_page02         0000000180068cc8     iconv.obj
 0002:0003cce8       mac_greek_page20           0000000180068ce8     iconv.obj
 0002:0003cd10       hkscs2008_uni2indx_page73  0000000180068d10     iconv.obj
 0002:0003cd88       riscos1_page20             0000000180068d88     iconv.obj
 0002:0003cdb8       cp853_page02               0000000180068db8     iconv.obj
 0002:0003cdc0       cp864_2uni_2               0000000180068dc0     iconv.obj
 0002:0003cec0       iso8859_4_page00           0000000180068ec0     iconv.obj
 0002:0003cfa0       cp922_2uni_3               0000000180068fa0     iconv.obj
 0002:0003cfc0       gb2312_uni2indx_page9e     0000000180068fc0     iconv.obj
 0002:0003d030       cp1251_page04              0000000180069030     iconv.obj
 0002:0003d0c8       gb18030ext_page2f          00000001800690c8     iconv.obj
 0002:0003d0e8       cp866_page00               00000001800690e8     iconv.obj
 0002:0003d100       cp866_page25               0000000180069100     iconv.obj
 0002:0003d1a8       cp1258_page03              00000001800691a8     iconv.obj
 0002:0003d1d0       mac_romania_page22         00000001800691d0     iconv.obj
 0002:0003d238       hkscs2008_uni2indx_page9f  0000000180069238     iconv.obj
 0002:0003d270       cp1131_page04              0000000180069270     iconv.obj
 0002:0003d308       hkscs2008_uni2indx_page62  0000000180069308     iconv.obj
 0002:0003d340       gb18030ext_page43          0000000180069340     iconv.obj
 0002:0003d3b0       cp922_2uni_2               00000001800693b0     iconv.obj
 0002:0003d3d0       cp932ext_uni2indx_page7d   00000001800693d0     iconv.obj
 0002:0003d480       hkscs2001_uni2indx_page5a  0000000180069480     iconv.obj
 0002:0003d5f8       cp852_page02               00000001800695f8     iconv.obj
 0002:0003d618       hkscs2004_uni2indx_page7d  0000000180069618     iconv.obj
 0002:0003d640       mac_arabic_page06          0000000180069640     iconv.obj
 0002:0003d710       cp737_page03               0000000180069710     iconv.obj
 0002:0003d760       cp860_page00               0000000180069760     iconv.obj
 0002:0003d7c0       armscii_8_2uni             00000001800697c0     iconv.obj
 0002:0003d880       cp437_2uni                 0000000180069880     iconv.obj
 0002:0003d980       gbkext_inv_uni2indx_pagef9 0000000180069980     iconv.obj
 0002:0003d9d0       translit_page31_5          00000001800699d0     iconv.obj
 0002:0003ddf0       translit_pagefe            0000000180069df0     iconv.obj
 0002:0003de40       mac_roman_page02           0000000180069e40     iconv.obj
 0002:0003de60       uhc_2_2charset_main        0000000180069e60     iconv.obj
 0002:0003dec8       hkscs2004_uni2indx_page29e 0000000180069ec8     iconv.obj
 0002:0003def8       hkscs2001_uni2indx_page299 0000000180069ef8     iconv.obj
 0002:0003df10       cp862_page25               0000000180069f10     iconv.obj
 0002:0003dfb8       hkscs2004_uni2indx_page232 0000000180069fb8     iconv.obj
 0002:0003dfd0       hkscs2008_uni2indx_page235 0000000180069fd0     iconv.obj
 0002:0003e038       georgian_ps_page10         000000018006a038     iconv.obj
 0002:0003e060       cp864_pagefe               000000018006a060     iconv.obj
 0002:0003e0e8       cp932ext_uni2indx_page24   000000018006a0e8     iconv.obj
 0002:0003e108       jamo_final_index_inverse   000000018006a108     iconv.obj
 0002:0003e128       hkscs2001_uni2indx_page40  000000018006a128     iconv.obj
 0002:0003e148       cp437_page23               000000018006a148     iconv.obj
 0002:0003e160       cp1255_page00              000000018006a160     iconv.obj
 0002:0003e1b8       hkscs2004_uni2indx_page6e  000000018006a1b8     iconv.obj
 0002:0003e1d0       cp1257_page00              000000018006a1d0     iconv.obj
 0002:0003e2b0       hkscs2001_2uni_page8c      000000018006a2b0     iconv.obj
 0002:0003e3a8       georgian_ps_page00         000000018006a3a8     iconv.obj
 0002:0003e3c8       hkscs2001_uni2indx_page65  000000018006a3c8     iconv.obj
 0002:0003e3f0       mac_romania_2uni           000000018006a3f0     iconv.obj
 0002:0003e4f0       cp1257_2uni                000000018006a4f0     iconv.obj
 0002:0003e5f0       koi8_r_2uni                000000018006a5f0     iconv.obj
 0002:0003e6f0       cp874_2uni                 000000018006a6f0     iconv.obj
 0002:0003e7f0       cp865_page25               000000018006a7f0     iconv.obj
 0002:0003e898       mac_romania_page21         000000018006a898     iconv.obj
 0002:0003e8a0       hkscs1999_uni2indx_page200 000000018006a8a0     iconv.obj
 0002:00040d20       gb18030ext_page2e          000000018006cd20     iconv.obj
 0002:00040dc0       hkscs2004_uni2indx_page4a  000000018006cdc0     iconv.obj
 0002:00040df0       translit_page22            000000018006cdf0     iconv.obj
 0002:00040eb0       koi8_t_page04              000000018006ceb0     iconv.obj
 0002:00040fa0       translit_page21            000000018006cfa0     iconv.obj
 0002:00041150       ksc5601_uni2indx_page20    000000018006d150     iconv.obj
 0002:000412f0       hkscs2008_uni2indx_page231 000000018006d2f0     iconv.obj
 0002:00041348       hp_roman8_page01           000000018006d348     iconv.obj
 0002:00041380       cp862_page00               000000018006d380     iconv.obj
 0002:000413e0       isoir165ext_2charset       000000018006d3e0     iconv.obj
 0002:00041ab8       hkscs2004_uni2indx_page26e 000000018006dab8     iconv.obj
 0002:00041ae0       isoir165ext_2uni_page7a    000000018006dae0     iconv.obj
 0002:00041e90       big5_uni2indx_pagefe       000000018006de90     iconv.obj
 0002:00041ef0       iso8859_16_2uni            000000018006def0     iconv.obj
 0002:00041fb0       cns11643_7_2uni_page21     000000018006dfb0     iconv.obj
 0002:000452c8       armscii_8_page00_1         00000001800712c8     iconv.obj
 0002:000452e8       hkscs2001_uni2indx_page256 00000001800712e8     iconv.obj
 0002:00045310       iso8859_5_2uni             0000000180071310     iconv.obj
 0002:000453d0       jisx0213_to_ucs_combining  00000001800713d0     iconv.obj
 0002:00045438       ?conversion_lists@?1??iso2022_jp2_wctomb@@9@9 0000000180071438     iconv.obj
 0002:00045448       hkscs1999_uni2indx_page1e  0000000180071448     iconv.obj
 0002:00045480       cp1161_2uni                0000000180071480     iconv.obj
 0002:00045540       cp865_2uni                 0000000180071540     iconv.obj
 0002:00045640       gb2312_uni2indx_page4e     0000000180071640     iconv.obj
 0002:00046a00       cp737_2uni                 0000000180072a00     iconv.obj
 0002:00046b00       jisx0208_uni2indx_page30   0000000180072b00     iconv.obj
 0002:00046b40       cp874_page0e               0000000180072b40     iconv.obj
 0002:00046ba0       cp1255_comp_table_data     0000000180072ba0     iconv.obj
 0002:00046c30       riscos1_2uni               0000000180072c30     iconv.obj
 0002:00046c70       cns11643_3_2uni_page64     0000000180072c70     iconv.obj
 0002:00046eb8       cp50221_0212_ext_pageff    0000000180072eb8     iconv.obj
 0002:00046ec0       cp862_2uni                 0000000180072ec0     iconv.obj
 0002:00046fc0       direct_tab                 0000000180072fc0     iconv.obj
 0002:00046fd0       all_encodings              0000000180072fd0     iconv.obj
 0002:000486a0       hkscs2004_uni2indx_page5f  00000001800746a0     iconv.obj
 0002:000486b0       cp932ext_2charset          00000001800746b0     iconv.obj
 0002:00048a48       georgian_ps_page02         0000000180074a48     iconv.obj
 0002:00048a68       hkscs2008_uni2indx_page52  0000000180074a68     iconv.obj
 0002:00048a80       cp1255_decomp_table        0000000180074a80     iconv.obj
 0002:00048b90       cp1256_page01              0000000180074b90     iconv.obj
 0002:00048bd8       rk1048_page21              0000000180074bd8     iconv.obj
 0002:00048bf0       translit_page31            0000000180074bf0     iconv.obj
 0002:00048cb0       koi8_r_page25              0000000180074cb0     iconv.obj
 0002:00048d58       hkscs2008_uni2indx_page88  0000000180074d58     iconv.obj
 0002:00048d80       mulelao_page0e             0000000180074d80     iconv.obj
 0002:00048de0       cns11643_4b_2uni_upages    0000000180074de0     iconv.obj
 0002:000491c0       cp863_page25               00000001800751c0     iconv.obj
 0002:00049268       hkscs2008_uni2indx_page54  0000000180075268     iconv.obj
 0002:00049280       cp1258_2uni                0000000180075280     iconv.obj
 0002:00049380       gb2312_uni2indx_page20     0000000180075380     iconv.obj
 0002:00049518       mac_cyrillic_page00        0000000180075518     iconv.obj
 0002:00049538       cp861_page23               0000000180075538     iconv.obj
 0002:00049550       hkscs1999_uni2indx_page00  0000000180075550     iconv.obj
 0002:00049608       cp1133_page00              0000000180075608     iconv.obj
 0002:00049618       hkscs2008_uni2indx_page8b  0000000180075618     iconv.obj
 0002:00049640       cp950ext_uni2indx_page5a   0000000180075640     iconv.obj
 0002:00049680       cp861_page25               0000000180075680     iconv.obj
 0002:00049728       atarist_page23             0000000180075728     iconv.obj
 0002:00049740       cp869_2uni                 0000000180075740     iconv.obj
 0002:00049840       hkscs2004_uni2indx_page43  0000000180075840     iconv.obj
 0002:00049958       cp1258_comp_bases          0000000180075958     iconv.obj
 0002:00049988       armscii_8_page20           0000000180075988     iconv.obj
 0002:000499a0       jisx0208_uni2indx_page4e   00000001800759a0     iconv.obj
 0002:0004ae10       translit_page03            0000000180076e10     iconv.obj
 0002:0004ae70       gbkext_inv_uni2indx_page30 0000000180076e70     iconv.obj
 0002:0004aeb0       hkscs2008_uni2indx_page2ad 0000000180076eb0     iconv.obj
 0002:0004aef0       cp863_page00               0000000180076ef0     iconv.obj
 0002:0004af50       translit_page02_1          0000000180076f50     iconv.obj
 0002:0004afa0       mac_roman_page22           0000000180076fa0     iconv.obj
 0002:0004b008       cp1255_comb_table          0000000180077008     iconv.obj
 0002:0004b010       cp1046_page00              0000000180077010     iconv.obj
 0002:0004b080       cns11643_inv_uni2indx_page2f8 0000000180077080     iconv.obj
 0002:0004b108       armscii_8_page00           0000000180077108     iconv.obj
 0002:0004b110       jisx0212_2charset          0000000180077110     iconv.obj
 0002:0004e078       cp950ext_uni2indx_page7c   000000018007a078     iconv.obj
 0002:0004e0a8       cp936ext_page01            000000018007a0a8     iconv.obj
 0002:0004e0c8       cp50221_0212_ext_page7d    000000018007a0c8     iconv.obj
 0002:0004e100       jisx0208_uni2indx_page20   000000018007a100     iconv.obj
 0002:0004e1c8       hkscs2008_uni2indx_page92  000000018007a1c8     iconv.obj
 0002:0004e1d0       cp860_page22               000000018007a1d0     iconv.obj
 0002:0004e220       viscii_2uni_2              000000018007a220     iconv.obj
 0002:0004e320       riscos1_page22             000000018007a320     iconv.obj
 0002:0004e330       cp1253_page03              000000018007a330     iconv.obj
 0002:0004e380       viscii_page00              000000018007a380     iconv.obj
 0002:0004e478       jisx0212_uni2indx_page21   000000018007a478     iconv.obj
 0002:0004e488       rk1048_page20              000000018007a488     iconv.obj
 0002:0004e4b8       jamo_medial_index_inverse  000000018007a4b8     iconv.obj
 0002:0004e4d0       atarist_page22             000000018007a4d0     iconv.obj
 0002:0004e530       iso8859_15_2uni            000000018007a530     iconv.obj
 0002:0004e570       cp855_2uni                 000000018007a570     iconv.obj
 0002:0004e670       isoir165ext_uni2indx_page4e 000000018007a670     iconv.obj
 0002:0004f230       hkscs2008_uni2indx_page38  000000018007b230     iconv.obj
 0002:0004f250       hkscs2001_uni2indx_page61  000000018007b250     iconv.obj
 0002:0004f260       mac_greek_page03           000000018007b260     iconv.obj
 0002:0004f2b0       cp864_2uni_1               000000018007b2b0     iconv.obj
 0002:0004f2d0       hkscs1999_uni2indx_pageff  000000018007b2d0     iconv.obj
 0002:0004f310       cp1046_pagefe              000000018007b310     iconv.obj
 0002:0004f3a0       uhc_1_2uni_page81          000000018007b3a0     iconv.obj
 0002:000509e0       georgian_ps_2uni_1         000000018007c9e0     iconv.obj
 0002:00050a20       cp932ext_uni2indx_page32   000000018007ca20     iconv.obj
 0002:00050a98       hkscs2004_uni2indx_page81  000000018007ca98     iconv.obj
 0002:00050ab8       cp1253_page00              000000018007cab8     iconv.obj
 0002:00050ad8       hkscs2001_uni2indx_page67  000000018007cad8     iconv.obj
 0002:00050af8       cp1254_page20              000000018007caf8     iconv.obj
 0002:00050b28       hkscs2001_uni2indx_page35  000000018007cb28     iconv.obj
 0002:00050b40       cp737_page22               000000018007cb40     iconv.obj
 0002:00050b90       mac_croatian_2uni          000000018007cb90     iconv.obj
 0002:00050c90       ksc5601_uni2indx_pagef9    000000018007cc90     iconv.obj
 0002:00050cd8       cp1251_page00              000000018007ccd8     iconv.obj
 0002:00050cf8       hkscs2001_uni2indx_page26b 000000018007ccf8     iconv.obj
 0002:00050d00       gb18030ext_page49          000000018007cd00     iconv.obj
 0002:00050df0       mac_turkish_page22         000000018007cdf0     iconv.obj
 0002:00050e58       iso8859_16_page20          000000018007ce58     iconv.obj
 0002:00050e60       cns11643_5_2uni_upages     000000018007ce60     iconv.obj
 0002:000511f8       isoir165ext_uni2indx_page30 000000018007d1f8     iconv.obj
 0002:00051208       cp865_page03               000000018007d208     iconv.obj
 0002:00051240       hkscs2008_uni2indx_page57  000000018007d240     iconv.obj
 0002:000512a8       mac_hebrew_page20          000000018007d2a8     iconv.obj
 0002:000512c0       hkscs2008_uni2indx_page84  000000018007d2c0     iconv.obj
 0002:00051348       mac_romania_page20         000000018007d348     iconv.obj
 0002:00051380       euc_jisx0213_comp_table_data 000000018007d380     iconv.obj
 0002:000513e8       mac_romania_page02         000000018007d3e8     iconv.obj
 0002:00051408       hkscs2004_uni2indx_page23b 000000018007d408     iconv.obj
 0002:00051410       hkscs2008_uni2indx_page66  000000018007d410     iconv.obj
 0002:00051478       iso8859_2_page02           000000018007d478     iconv.obj
 0002:00051498       hkscs2001_uni2indx_page227 000000018007d498     iconv.obj
 0002:000514a0       cp850_page00               000000018007d4a0     iconv.obj
 0002:00051500       hkscs2001_uni2indx_page2a1 000000018007d500     iconv.obj
 0002:00051570       hkscs2008_uni2indx_page3e  000000018007d570     iconv.obj
 0002:000515b0       nextstep_page00            000000018007d5b0     iconv.obj
 0002:00051610       cp1251_2uni                000000018007d610     iconv.obj
 0002:00051710       translit_pagefb            000000018007d710     iconv.obj
 0002:000517b0       stringpool2_contents       000000018007d7b0     iconv.obj
 0002:00051a28       cp1131_page00              000000018007da28     iconv.obj
 0002:00051a40       hkscs2004_uni2indx_page59  000000018007da40     iconv.obj
 0002:00051b60       cp1255_2uni                000000018007db60     iconv.obj
 0002:00051c60       mac_hebrew_page05          000000018007dc60     iconv.obj
 0002:00051ca0       hkscs2008_uni2indx_page241 000000018007dca0     iconv.obj
 0002:00051cc0       gb2312_uni2indx_page00     000000018007dcc0     iconv.obj
 0002:00051dd8       koi8_t_page21              000000018007ddd8     iconv.obj
 0002:00051df0       pt154_page04               000000018007ddf0     iconv.obj
 0002:00051ee0       mac_iceland_page01         000000018007dee0     iconv.obj
 0002:00051f48       mac_roman_pagefb           000000018007df48     iconv.obj
 0002:00051f50       iso8859_3_page01           000000018007df50     iconv.obj
 0002:00051fc8       cp932ext_uni2indx_page30   000000018007dfc8     iconv.obj
 0002:00051fd0       viet_comp_table_data       000000018007dfd0     iconv.obj
 0002:000522f8       hkscs2001_uni2indx_page251 000000018007e2f8     iconv.obj
 0002:00052330       aliases                    000000018007e330     iconv.obj
 0002:00054000       cns11643_inv_uni2indx_page20 0000000180080000     iconv.obj
 0002:000540b0       hkscs2004_uni2indx_page27b 00000001800800b0     iconv.obj
 0002:00054128       cp50221_0208_ext_page22    0000000180080128     iconv.obj
 0002:00054148       koi8_u_page23              0000000180080148     iconv.obj
 0002:00054150       hkscs2001_uni2indx_page57  0000000180080150     iconv.obj
 0002:000541c8       hkscs2008_uni2indx_page224 00000001800801c8     iconv.obj
 0002:00054200       uhc_1_2uni_main_page81     0000000180080200     iconv.obj
 0002:00054280       cp1046_2uni                0000000180080280     iconv.obj
 0002:00054380       cns11643_1_2uni_page44     0000000180080380     iconv.obj
 0002:00056db8       cp50221_0212_ext_page76    0000000180082db8     iconv.obj
 0002:00056dd8       koi8_r_page23              0000000180082dd8     iconv.obj
 0002:00056de0       cp861_page00               0000000180082de0     iconv.obj
 0002:00056e40       mac_roman_2uni             0000000180082e40     iconv.obj
 0002:00056f40       cp869_page20               0000000180082f40     iconv.obj
 0002:00056f50       mac_croatian_page00        0000000180082f50     iconv.obj
 0002:00057048       gb18030ext_page4d          0000000180083048     iconv.obj
 0002:00057068       cp1163_page20              0000000180083068     iconv.obj
 0002:00057070       gb2312_2uni_page21         0000000180083070     iconv.obj
 0002:000576f0       translit_page2f8           00000001800836f0     iconv.obj
 0002:00057b30       koi8_u_page22              0000000180083b30     iconv.obj
 0002:00057b80       cp50221_0208_ext_2uni      0000000180083b80     iconv.obj
 0002:00057c40       gb18030ext_2uni_pagea9     0000000180083c40     iconv.obj
 0002:00057c60       translit_page24            0000000180083c60     iconv.obj
 0002:00057e40       cp50221_0212_ext_page6d    0000000180083e40     iconv.obj
 0002:00057e50       cp950ext_uni2indx_page58   0000000180083e50     iconv.obj
 0002:00057e80       gb18030ext_page36          0000000180083e80     iconv.obj
 0002:00057eb0       nextstep_page02            0000000180083eb0     iconv.obj
 0002:00057ed0       viet_decomp_table          0000000180083ed0     iconv.obj
 0002:00058518       viet_comp_table            0000000180084518     iconv.obj
 0002:00058540       shift_jisx0213_comp_table_data 0000000180084540     iconv.obj
 0002:000585a8       translit_page1e_2          00000001800845a8     iconv.obj
 0002:000585b8       mac_cyrillic_page20        00000001800845b8     iconv.obj
 0002:000585d0       cp853_page25               00000001800845d0     iconv.obj
 0002:00058678       mac_croatian_page20        0000000180084678     iconv.obj
 0002:000586b0       koi8_ru_page04             00000001800846b0     iconv.obj
 0002:00058748       cp864_page22               0000000180084748     iconv.obj
 0002:00058780       mac_iceland_page22         0000000180084780     iconv.obj
 0002:000587e8       mac_ukraine_page20         00000001800847e8     iconv.obj
 0002:00058800       translit_data              0000000180084800     iconv.obj
 0002:00061670       hkscs2001_uni2indx_page9f  000000018008d670     iconv.obj
 0002:000616a0       hkscs2001_uni2indx_page42  000000018008d6a0     iconv.obj
 0002:000616d0       cns11643_3_2uni_upages     000000018008d6d0     iconv.obj
 0002:000618f0       hkscs2001_uni2indx_page25c 000000018008d8f0     iconv.obj
 0002:00061940       cp1256_page06              000000018008d940     iconv.obj
 0002:00061a10       translit_pagef9            000000018008da10     iconv.obj
 0002:00061cf0       cp950ext_2charset          000000018008dcf0     iconv.obj
 0002:00061d48       iso8859_8_page05           000000018008dd48     iconv.obj
 0002:00061d68       gb18030ext_page47_2        000000018008dd68     iconv.obj
 0002:00061d98       nextstep_page20            000000018008dd98     iconv.obj
 0002:00061dd0       big5_uni2indx_page20       000000018008ddd0     iconv.obj
 0002:00061e80       cp863_page22               000000018008de80     iconv.obj
 0002:00061ed0       big5_2uni_pagec9           000000018008ded0     iconv.obj
 0002:00065a98       cp50221_0208_ext_page30    0000000180091a98     iconv.obj
 0002:00065aa0       cns11643_inv_uni2indx_page02 0000000180091aa0     iconv.obj
 0002:00065b18       iso8859_15_page01          0000000180091b18     iconv.obj
 0002:00065b48       mac_croatian_page21        0000000180091b48     iconv.obj
 0002:00065b50       hkscs2004_uni2indx_page56  0000000180091b50     iconv.obj
 0002:00065b90       hkscs2004_2charset         0000000180091b90     iconv.obj
 0002:00065c88       gb18030ext_page9f          0000000180091c88     iconv.obj
 0002:00065ca8       cp50221_0212_ext_pagefa    0000000180091ca8     iconv.obj
 0002:00065cd0       hkscs1999_uni2indx_page23  0000000180091cd0     iconv.obj
 0002:00065d70       cp932ext_uni2indx_page83   0000000180091d70     iconv.obj
 0002:00065e20       tds565_page00              0000000180091e20     iconv.obj
 0002:00065e60       hkscs2001_uni2indx_page249 0000000180091e60     iconv.obj
 0002:00065ea8       hkscs2001_uni2indx_page21d 0000000180091ea8     iconv.obj
 0002:00065ed8       hkscs2004_uni2indx_page79  0000000180091ed8     iconv.obj
 0002:00065f10       big5_uni2indx_page4e       0000000180091f10     iconv.obj
 0002:00067380       gb18030ext_page4c          0000000180093380     iconv.obj
 0002:000673f0       mac_greek_page00           00000001800933f0     iconv.obj
 0002:00067450       cp857_2uni                 0000000180093450     iconv.obj
 0002:00067550       georgian_ps_page20         0000000180093550     iconv.obj
 0002:00067580       cp1256_page00              0000000180093580     iconv.obj
 0002:000675e0       hkscs2004_uni2indx_page3f  00000001800935e0     iconv.obj
 0002:000676a0       hkscs2004_2uni_upages      00000001800936a0     iconv.obj
 0002:000677d8       cp1254_2uni_3              00000001800937d8     iconv.obj
 0002:000677f8       cp50221_0212_ext_page21    00000001800937f8     iconv.obj
 0002:00067808       cp737_page00               0000000180093808     iconv.obj
 0002:00067820       cns11643_inv_uni2indx_page00 0000000180093820     iconv.obj
 0002:00067860       atarist_page01             0000000180093860     iconv.obj
 0002:000678c8       mac_roman_page20           00000001800938c8     iconv.obj
 0002:00067900       hkscs2001_2uni_upages      0000000180093900     iconv.obj
 0002:00067a58       cp1252_page02              0000000180093a58     iconv.obj
 0002:00067a78       gbkext_inv_uni2indx_page02 0000000180093a78     iconv.obj
 0002:00067ab0       ksc5601_uni2indx_page00    0000000180093ab0     iconv.obj
 0002:00067bc8       iso8859_16_page02          0000000180093bc8     iconv.obj
 0002:00067bd0       mac_ukraine_page22         0000000180093bd0     iconv.obj
 0002:00067c38       nextstep_pagefb            0000000180093c38     iconv.obj
 0002:00067c40       cp853_2uni                 0000000180093c40     iconv.obj
 0002:00067d40       iso8859_13_2uni            0000000180093d40     iconv.obj
 0002:00067e00       tcvn_2uni_2                0000000180093e00     iconv.obj
 0002:00067f00       cp856_page05               0000000180093f00     iconv.obj
 0002:00067f20       jisx0213_from_ucs_level2_2indx 0000000180093f20     iconv.obj
 0002:0006a980       cp437_page22               0000000180096980     iconv.obj
 0002:0006a9d0       cns11643_5_2uni_page21     00000001800969d0     iconv.obj
 0002:0006ed08       translit_page2a            000000018009ad08     iconv.obj
 0002:0006ed18       hkscs2001_uni2indx_page88  000000018009ad18     iconv.obj
 0002:0006ed40       iso8859_13_page00          000000018009ad40     iconv.obj
 0002:0006ee20       hkscs2008_uni2indx_page6a  000000018009ae20     iconv.obj
 0002:0006ee30       cp1129_page00              000000018009ae30     iconv.obj
 0002:0006ef40       uhc_2_2uni_main_pagea1     000000018009af40     iconv.obj
 0002:0006efd8       gb18030ext_page47_1        000000018009afd8     iconv.obj
 0002:0006eff8       hkscs2004_uni2indx_page221 000000018009aff8     iconv.obj
 0002:0006f030       cp869_page03               000000018009b030     iconv.obj
 0002:0006f080       hkscs2001_uni2indx_page26d 000000018009b080     iconv.obj
 0002:0006f0a0       cp932ext_2uni_pageed       000000018009b0a0     iconv.obj
 0002:0006f390       gbkext_inv_2charset        000000018009b390     iconv.obj
 0002:00076368       hkscs2001_uni2indx_page28d 00000001800a2368     iconv.obj
 0002:00076398       cp950ext_uni2indx_page88   00000001800a2398     iconv.obj
 0002:000763d0       cp852_page00               00000001800a23d0     iconv.obj
 0002:000764b0       hkscs2001_uni2indx_page4e  00000001800a24b0     iconv.obj
 0002:000765a0       big5_2003_2charset_page25  00000001800a25a0     iconv.obj
 0002:000765c0       mac_thai_2uni              00000001800a25c0     iconv.obj
 0002:000766c0       iso8859_7_2uni             00000001800a26c0     iconv.obj
 0002:00076780       jisx0212_uni2indx_page00   00000001800a2780     iconv.obj
 0002:00076898       mac_roman_page21           00000001800a2898     iconv.obj
 0002:000768a0       cp1258_page00              00000001800a28a0     iconv.obj
 0002:000768f8       mac_turkish_page20         00000001800a28f8     iconv.obj
 0002:00076920       hkscs2008_2uni_page87      00000001800a2920     iconv.obj
 0002:00076a20       cp932ext_uni2indx_page5f   00000001800a2a20     iconv.obj
 0002:00077148       hkscs2004_uni2indx_page2a1 00000001800a3148     iconv.obj
 0002:00077178       cp1133_2uni_2              00000001800a3178     iconv.obj
 0002:00077198       ksc5601_uni2indx_pageff    00000001800a3198     iconv.obj
 0002:000771d8       hkscs2001_uni2indx_page23c 00000001800a31d8     iconv.obj
 0002:000771f8       koi8_t_page20              00000001800a31f8     iconv.obj
 0002:00077228       mac_centraleurope_page22_1 00000001800a3228     iconv.obj
 0002:00077230       hp_roman8_page00           00000001800a3230     iconv.obj
 0002:00077290       hkscs1999_uni2indx_page297 00000001800a3290     iconv.obj
 0002:00077680       cp1250_page02              00000001800a3680     iconv.obj
 0002:000776a0       isoir165ext_2uni_page2b    00000001800a36a0     iconv.obj
 0002:00077a50       ksc5601_2uni_page4a        00000001800a3a50     iconv.obj
 0002:0007a080       hkscs2004_uni2indx_page235 00000001800a6080     iconv.obj
 0002:0007a0c8       hkscs2004_uni2indx_page3b  00000001800a60c8     iconv.obj
 0002:0007a0f0       cp1125_page25              00000001800a60f0     iconv.obj
 0002:0007a198       iso8859_14_page01_1        00000001800a6198     iconv.obj
 0002:0007a1a8       cp874_page20               00000001800a61a8     iconv.obj
 0002:0007a1c0       mac_hebrew_page00          00000001800a61c0     iconv.obj
 0002:0007a220       atarist_page05             00000001800a6220     iconv.obj
 0002:0007a240       big5_2003_2uni_pagef9      00000001800a6240     iconv.obj
 0002:0007a298       mac_thai_page00            00000001800a6298     iconv.obj
 0002:0007a2b8       koi8_ru_page23             00000001800a62b8     iconv.obj
 0002:0007a2c0       gb2312_2uni_page30         00000001800a62c0     iconv.obj
 0002:0007d7a0       gbkext_inv_uni2indx_pagefe 00000001800a97a0     iconv.obj
 0002:0007d820       mac_ukraine_page00         00000001800a9820     iconv.obj
 0002:0007d840       jisx0208_2uni_page21       00000001800a9840     iconv.obj
 0002:0007dda8       xbase64_tab                00000001800a9da8     iconv.obj
 0002:0007ddb8       hkscs2001_uni2indx_page26f 00000001800a9db8     iconv.obj
 0002:0007dde8       hp_roman8_page02           00000001800a9de8     iconv.obj
 0002:0007de08       hkscs2004_uni2indx_page289 00000001800a9e08     iconv.obj
 0002:0007de28       tcvn_comp_bases            00000001800a9e28     iconv.obj
 0002:0007de58       cp950ext_uni2indx_page78   00000001800a9e58     iconv.obj
 0002:0007de80       mac_hebrew_2uni            00000001800a9e80     iconv.obj
 0002:0007df80       cp1124_page04              00000001800a9f80     iconv.obj
 0002:0007e018       hkscs2001_uni2indx_page241 00000001800aa018     iconv.obj
 0002:0007e030       iso8859_14_page00          00000001800aa030     iconv.obj
 0002:0007e090       cns11643_3_2uni_page21     00000001800aa090     iconv.obj
 0002:00081098       cp1256_page20              00000001800ad098     iconv.obj
 0002:000810d0       mac_cyrillic_page04        00000001800ad0d0     iconv.obj
 0002:00081130       cp50221_0208_ext_page32_1  00000001800ad130     iconv.obj
 0002:00081140       hkscs1999_2uni_pagec6      00000001800ad140     iconv.obj
 0002:000814f0       cp50221_0212_ext_page97    00000001800ad4f0     iconv.obj
 0002:00081510       hkscs2004_uni2indx_page4c  00000001800ad510     iconv.obj
 0002:00081578       cp1254_page00              00000001800ad578     iconv.obj
 0002:000815a8       hkscs2001_uni2indx_page219 00000001800ad5a8     iconv.obj
 0002:000815d0       cp1125_page04              00000001800ad5d0     iconv.obj
 0002:00081668       cp932ext_uni2indx_pageff   00000001800ad668     iconv.obj
 0002:000816a8       hkscs2004_uni2indx_page242 00000001800ad6a8     iconv.obj
 0002:000816d8       hkscs2004_uni2indx_page227 00000001800ad6d8     iconv.obj
 0002:00081700       ksc5601_2uni_page30        00000001800ad700     iconv.obj
 0002:00082960       cp932ext_2uni_page87       00000001800ae960     iconv.obj
 0002:00082a18       cp863_page23               00000001800aea18     iconv.obj
 0002:00082a30       cp932ext_uni2indx_page4e   00000001800aea30     iconv.obj
 0002:00082c18       translit_page20_3          00000001800aec18     iconv.obj
 0002:00082c28       cp862_page03               00000001800aec28     iconv.obj
 0002:00082c60       cns11643_1_2uni_page42     00000001800aec60     iconv.obj
 0002:00082ca8       cp1258_page02              00000001800aeca8     iconv.obj
 0002:00082cc8       cp50221_0208_ext_page24    00000001800aecc8     iconv.obj
 0002:00082ce0       iso8859_6_2uni             00000001800aece0     iconv.obj
 0002:00082da0       hkscs2008_uni2indx_page27b 00000001800aeda0     iconv.obj
 0002:00082dc0       tds565_2uni                00000001800aedc0     iconv.obj
 0002:00082e40       cp865_page00               00000001800aee40     iconv.obj
 0002:00082ea0       jisx0212_2uni_page22       00000001800aeea0     iconv.obj
 0002:00082f48       cp1124_page00              00000001800aef48     iconv.obj
 0002:00082f58       cp860_page03               00000001800aef58     iconv.obj
 0002:00082f90       hkscs2008_2uni_upages      00000001800aef90     iconv.obj
 0002:00083058       jisx0212_uni2indx_pageff   00000001800af058     iconv.obj
 0002:00083070       mac_turkish_page00         00000001800af070     iconv.obj
 0002:000830d0       gb18030ext_page46          00000001800af0d0     iconv.obj
 0002:00083110       cns11643_inv_uni2indx_page200 00000001800af110     iconv.obj
 0002:00085ac8       hkscs2004_uni2indx_page74  00000001800b1ac8     iconv.obj
 0002:00085af0       iso8859_3_2uni             00000001800b1af0     iconv.obj
 0002:00085bb0       cp864_page25               00000001800b1bb0     iconv.obj
 0002:00085bf0       iso8859_16_page00          00000001800b1bf0     iconv.obj
 0002:00085cd0       hkscs2001_uni2indx_page82  00000001800b1cd0     iconv.obj
 0002:00085d10       koi8_u_page00              00000001800b1d10     iconv.obj
 0002:00085d68       hkscs2004_uni2indx_page34  00000001800b1d68     iconv.obj
 0002:00085d80       hp_roman8_2uni             00000001800b1d80     iconv.obj
 0002:00085e40       iso8859_7_page03           00000001800b1e40     iconv.obj
 0002:00085e98       iso8859_13_page20          00000001800b1e98     iconv.obj
 0002:00085ea0       hkscs2004_uni2indx_page3d  00000001800b1ea0     iconv.obj
 0002:00085ee0       mac_roman_page01           00000001800b1ee0     iconv.obj
 0002:00085f48       cp437_page03               00000001800b1f48     iconv.obj
 0002:00085f80       jisx0213_from_ucs_level2_data 00000001800b1f80     iconv.obj
 0002:0008b710       translit_pageff            00000001800b7710     iconv.obj
 0002:0008b8f0       cp1258_page20              00000001800b78f0     iconv.obj
 0002:0008b920       translit_page25            00000001800b7920     iconv.obj
 0002:0008b9a0       cp1254_2uni_1              00000001800b79a0     iconv.obj
 0002:0008b9e0       translit_page2f            00000001800b79e0     iconv.obj
 0002:0008bb90       hkscs2004_uni2indx_page71  00000001800b7b90     iconv.obj
 0002:0008bbe0       gb18030_pua2charset        00000001800b7be0     iconv.obj
 0002:0008bca0       cp856_page00               00000001800b7ca0     iconv.obj
 0002:0008bcf8       cp869_page00               00000001800b7cf8     iconv.obj
 0002:0008bd18       pt154_page00               00000001800b7d18     iconv.obj
 0002:0008bd38       cp1254_page02              00000001800b7d38     iconv.obj
 0002:0008bd58       hkscs2008_uni2indx_page49  00000001800b7d58     iconv.obj
 0002:0008bd68       hkscs2008_uni2indx_page20a 00000001800b7d68     iconv.obj
 0002:0008bd90       cp1129_2uni                00000001800b7d90     iconv.obj
 0002:0008be50       big5_2003_2uni_pagea1      00000001800b7e50     iconv.obj
 0002:0008c0c8       cp1250_page20              00000001800b80c8     iconv.obj
 0002:0008c0f8       cp863_page03               00000001800b80f8     iconv.obj
 0002:0008c130       cns11643_4a_2uni_page21    00000001800b8130     iconv.obj
 0002:0008d7f8       jamo_medial_index          00000001800b97f8     iconv.obj
 0002:0008d818       cp865_page23               00000001800b9818     iconv.obj
 0002:0008d830       cp1250_2uni                00000001800b9830     iconv.obj
 0002:0008d930       cp932ext_uni2indx_page57   00000001800b9930     iconv.obj
 0002:0008d9e0       hkscs2004_uni2indx_page21a 00000001800b99e0     iconv.obj
 0002:0008da00       translit_page05            00000001800b9a00     iconv.obj
 0002:0008da10       hkscs2004_uni2indx_page23e 00000001800b9a10     iconv.obj
 0002:0008dad0       cp1254_page01              00000001800b9ad0     iconv.obj
 0002:0008db50       gb18030ext_page34          00000001800b9b50     iconv.obj
 0002:0008dbc0       jisx0208_2uni_page30       00000001800b9bc0     iconv.obj
 0002:00090dc0       hkscs2004_uni2indx_page36  00000001800bcdc0     iconv.obj
 0002:00090ea0       gb2312_uni2indx_page30     00000001800bcea0     iconv.obj
 0002:00090f30       ksc5601_2uni_page21        00000001800bcf30     iconv.obj
 0002:000917e8       cp936ext_page02            00000001800bd7e8     iconv.obj
 0002:00091818       cp861_page03               00000001800bd818     iconv.obj
 0002:00091850       cp853_page00               00000001800bd850     iconv.obj
 0002:000918b0       iso8859_8_page00           00000001800bd8b0     iconv.obj
 0002:00091908       tcvn_2uni_1                00000001800bd908     iconv.obj
 0002:00091938       iso8859_6_page00           00000001800bd938     iconv.obj
 0002:00091948       jamo_initial_index_inverse 00000001800bd948     iconv.obj
 0002:00091960       isoir165ext_uni2indx_page32 00000001800bd960     iconv.obj
 0002:000919e0       cns11643_4a_2uni_upages    00000001800bd9e0     iconv.obj
 0002:00091d30       big5_2003_2uni_pagec6      00000001800bdd30     iconv.obj
 0002:00091dc0       gbkext_inv_uni2indx_page32 00000001800bddc0     iconv.obj
 0002:00091e38       cp1255_page20              00000001800bde38     iconv.obj
 0002:00091e70       big5_uni2indx_page30       00000001800bde70     iconv.obj
 0002:00091f68       cp50221_0212_ext_page53    00000001800bdf68     iconv.obj
 0002:00091f90       translit_page1e            00000001800bdf90     iconv.obj
 0002:000920d0       rk1048_page04              00000001800be0d0     iconv.obj
 0002:000921c0       iso8859_2_2uni             00000001800be1c0     iconv.obj
 0002:00092280       hkscs2008_uni2indx_page70  00000001800be280     iconv.obj
 0002:000922a0       cp936ext_2uni_pagea6       00000001800be2a0     iconv.obj
 0002:000922d0       cp950_2uni_pagea1          00000001800be2d0     iconv.obj
 0002:00092548       iso8859_4_page02           00000001800be548     iconv.obj
 0002:00092568       riscos1_page01             00000001800be568     iconv.obj
 0002:00092590       tcvn_page1e                00000001800be590     iconv.obj
 0002:000925f0       iso8859_8_2uni             00000001800be5f0     iconv.obj
 0002:000926b0       pt154_2uni                 00000001800be6b0     iconv.obj
 0002:00092730       cp861_2uni                 00000001800be730     iconv.obj
 0002:00092830       cp1251_page20              00000001800be830     iconv.obj
 0002:00092860       translit_page30            00000001800be860     iconv.obj
 0002:00092a50       hkscs2004_uni2indx_page298 00000001800bea50     iconv.obj
 0002:00092aa8       isoir165ext_uni2indx_page03 00000001800beaa8     iconv.obj
 0002:00092ad8       cp950ext_uni2indx_page25   00000001800bead8     iconv.obj
 0002:00092b00       hkscs2008_uni2indx_page79  00000001800beb00     iconv.obj
 0002:00092bb8       translit_page02            00000001800bebb8     iconv.obj
 0002:00092bc8       hkscs2004_uni2indx_page2a3 00000001800bebc8     iconv.obj
 0002:00092be0       tds565_page00_1            00000001800bebe0     iconv.obj
 0002:00092c20       koi8_ru_page25             00000001800bec20     iconv.obj
 0002:00092cc8       iso8859_14_page1e_1        00000001800becc8     iconv.obj
 0002:00092cd0       big5_2charset              00000001800becd0     iconv.obj
 0002:000997e0       hkscs2004_uni2indx_page21d 00000001800c57e0     iconv.obj
 0002:00099830       cp1255_page05              00000001800c5830     iconv.obj
 0002:00099878       jisx0208_uni2indx_pageff   00000001800c5878     iconv.obj
 0002:000998b8       xdirect_tab                00000001800c58b8     iconv.obj
 0002:000998c8       cp855_page00               00000001800c58c8     iconv.obj
 0002:000998e8       hkscs2004_uni2indx_page254 00000001800c58e8     iconv.obj
 0002:00099910       cp950ext_2uni_pagef9       00000001800c5910     iconv.obj
 0002:00099968       cp1254_2uni_2              00000001800c5968     iconv.obj
 0002:00099988       hkscs2008_uni2indx_page97  00000001800c5988     iconv.obj
 0002:000999a0       georgian_ps_2uni_2         00000001800c59a0     iconv.obj
 0002:000999f0       hkscs2004_2uni_page87      00000001800c59f0     iconv.obj
 0002:00099a68       cp1046_pagef8              00000001800c5a68     iconv.obj
 0002:00099a78       hkscs2001_uni2indx_page8b  00000001800c5a78     iconv.obj
 0002:00099aa0       cp1125_2uni                00000001800c5aa0     iconv.obj
 0002:00099b40       jisx0212_2uni_page26       00000001800c5b40     iconv.obj
 0002:00099cb8       tcvn_page03                00000001800c5cb8     iconv.obj
 0002:00099ce0       mac_iceland_page00         00000001800c5ce0     iconv.obj
 0002:00099d40       hkscs2008_uni2indx_page94  00000001800c5d40     iconv.obj
 0002:00099d50       hkscs1999_uni2indx_page2e  00000001800c5d50     iconv.obj
 0002:00099e60       viscii_2uni_1              00000001800c5e60     iconv.obj
 0002:00099ea0       jamo_initial_index         00000001800c5ea0     iconv.obj
 0002:00099ec0       iso8859_6_page06           00000001800c5ec0     iconv.obj
 0002:00099f10       cp50221_0208_ext_page32    00000001800c5f10     iconv.obj
 0002:00099f20       jisx0213_from_ucs_level1   00000001800c5f20     iconv.obj
 0002:0009b458       iso8859_5_page00           00000001800c7458     iconv.obj
 0002:0009b468       iso8859_3_page02           00000001800c7468     iconv.obj
 0002:0009b470       mac_arabic_2uni            00000001800c7470     iconv.obj
 0002:0009b570       ksc5601_uni2indx_page4e    00000001800c7570     iconv.obj
 0002:0009c9d8       hkscs2008_uni2indx_page26e 00000001800c89d8     iconv.obj
 0002:0009ca00       mac_greek_2uni             00000001800c8a00     iconv.obj
 0002:0009cb00       mac_croatian_page22        00000001800c8b00     iconv.obj
 0002:0009cb68       cp1257_page20              00000001800c8b68     iconv.obj
 0002:0009cb98       hkscs1999_uni2indx_page27  00000001800c8b98     iconv.obj
 0002:0009cbb0       cjk_variants               00000001800c8bb0     iconv.obj
 0002:000a29c0       uhc_1_uni2indx_pageac      00000001800ce9c0     iconv.obj
 0002:000a30f0       cp932ext_uni2indx_page88   00000001800cf0f0     iconv.obj
 0002:000a32a8       jamo_final                 00000001800cf2a8     iconv.obj
 0002:000a32d0       gb2312_2charset            00000001800cf2d0     iconv.obj
 0002:000a6d00       hkscs1999_2uni_page8d      00000001800d2d00     iconv.obj
 0002:000a8590       hkscs2001_uni2indx_page69  00000001800d4590     iconv.obj
 0002:000a85f0       cp932ext_uni2indx_page21   00000001800d45f0     iconv.obj
 0002:000a8660       jamo_final_index           00000001800d4660     iconv.obj
 0002:000a8680       gbkext_inv_uni2indx_page25 00000001800d4680     iconv.obj
 0002:000a86d0       cp857_page00               00000001800d46d0     iconv.obj
 0002:000a8730       cp866_page04               00000001800d4730     iconv.obj
 0002:000a8790       cns11643_6_2uni_upages     00000001800d4790     iconv.obj
 0002:000a8ac0       iso2022_jp3_comp_table_data 00000001800d4ac0     iconv.obj
 0002:000a8b30       cp1046_page06              00000001800d4b30     iconv.obj
 0002:000a8ba0       big5_uni2indx_page02       00000001800d4ba0     iconv.obj
 0002:000a8c40       cp852_2uni                 00000001800d4c40     iconv.obj
 0002:000a8d40       georgian_academy_page00    00000001800d4d40     iconv.obj
 0002:000a8d60       stringpool_contents        00000001800d4d60     iconv.obj
 0002:000a9b60       translit_page00            00000001800d5b60     iconv.obj
 0002:000a9e10       cp1131_page25              00000001800d5e10     iconv.obj
 0002:000a9eb0       hkscs1999_2uni_page88      00000001800d5eb0     iconv.obj
 0002:000aa3a0       koi8_u_page25              00000001800d63a0     iconv.obj
 0002:000aa450       cp869_page25               00000001800d6450     iconv.obj
 0002:000aa500       iso8859_5_page04           00000001800d6500     iconv.obj
 0002:000aa560       hkscs2001_uni2indx_page232 00000001800d6560     iconv.obj
 0002:000aa5e0       gbkext_inv_uni2indx_page20 00000001800d65e0     iconv.obj
 0002:000aa690       cns11643_7_2uni_upages     00000001800d6690     iconv.obj
 0002:000aa9b0       hkscs2004_uni2indx_page66  00000001800d69b0     iconv.obj
 0002:000aaa10       gb18030uni_ranges          00000001800d6a10     iconv.obj
 0002:000aabb0       johab_hangul_page31        00000001800d6bb0     iconv.obj
 0002:000aac20       gb18030uni_uni2charset_ranges 00000001800d6c20     iconv.obj
 0002:000aaf60       hkscs2004_uni2indx_page201 00000001800d6f60     iconv.obj
 0002:000aafb0       rk1048_2uni                00000001800d6fb0     iconv.obj
 0002:000ab0b0       cp857_page01               00000001800d70b0     iconv.obj
 0002:000ab0f8       hkscs2001_uni2indx_page214 00000001800d70f8     iconv.obj
 0002:000ab110       cp853_page01               00000001800d7110     iconv.obj
 0002:000ab190       iso8859_3_page00           00000001800d7190     iconv.obj
 0002:000ab1f0       hkscs2008_uni2indx_page43  00000001800d71f0     iconv.obj
 0002:000ab270       rk1048_page00              00000001800d7270     iconv.obj
 0002:000ab290       riscos1_page21             00000001800d7290     iconv.obj
 0002:000ab2a0       cp950ext_uni2indx_page92   00000001800d72a0     iconv.obj
 0002:000ab2d0       translit_page0e            00000001800d72d0     iconv.obj
 0002:000ab330       mac_centraleurope_page00   00000001800d7330     iconv.obj
 0002:000ab410       hkscs2004_2uni_page8c      00000001800d7410     iconv.obj
 0002:000ab590       tds565_page01              00000001800d7590     iconv.obj
 0002:000ab5d0       cp864_page06               00000001800d75d0     iconv.obj
 0002:000ab640       uhc_2_2charset             00000001800d7640     iconv.obj
 0002:000ac278       cp1252_page20              00000001800d8278     iconv.obj
 0002:000ac2b0       cns11643_1_2uni_page21     00000001800d82b0     iconv.obj
 0002:000ac6a0       big5_uni2indx_page00       00000001800d86a0     iconv.obj
 0002:000ac6e0       hkscs2004_uni2indx_page8a  00000001800d86e0     iconv.obj
 0002:000ac720       gb18030ext_page39          00000001800d8720     iconv.obj
 0002:000ac750       koi8_r_page04              00000001800d8750     iconv.obj
 0002:000ac7b0       koi8_ru_2uni               00000001800d87b0     iconv.obj
 0002:000ac8b0       cns11643_inv_uni2indx_pagefe 00000001800d88b0     iconv.obj
 0002:000ac930       translit_page1d4           00000001800d8930     iconv.obj
 0002:000ad130       ksc5601_uni2indx_page30    00000001800d9130     iconv.obj
 0002:000ad228       koi8_t_page00              00000001800d9228     iconv.obj
 0002:000ad250       cp1124_2uni                00000001800d9250     iconv.obj
 0002:000ad310       mac_roman_page00           00000001800d9310     iconv.obj
 0002:000ad370       cp860_page25               00000001800d9370     iconv.obj
 0002:000ad418       hkscs2004_uni2indx_page286 00000001800d9418     iconv.obj
 0002:000ad448       iso8859_7_page20           00000001800d9448     iconv.obj
 0002:000ad460       hkscs2008_uni2indx_page3a  00000001800d9460     iconv.obj
 0002:000ad4a0       cp936ext_2uni_pagea8       00000001800d94a0     iconv.obj
 0002:000ad4b0       mac_turkish_page02         00000001800d94b0     iconv.obj
 0002:000ad4d0       iso8859_9_2uni             00000001800d94d0     iconv.obj
 0002:000ad530       hkscs2008_2charset         00000001800d9530     iconv.obj
 0002:000ad5c0       koi8_r_page00              00000001800d95c0     iconv.obj
 0002:000ad620       hkscs2001_uni2indx_page7a  00000001800d9620     iconv.obj
 0002:000ad740       mac_centraleurope_page22   00000001800d9740     iconv.obj
 0002:000ad760       cp775_page00               00000001800d9760     iconv.obj
 0002:000ad840       koi8_u_2uni                00000001800d9840     iconv.obj
 0002:000ad940       koi8_t_2uni                00000001800d9940     iconv.obj
 0002:000ada40       koi8_ru_page22             00000001800d9a40     iconv.obj
 0002:000ada90       cp922_2uni_1               00000001800d9a90     iconv.obj
 0002:000adab0       hkscs2004_uni2indx_page272 00000001800d9ab0     iconv.obj
 0002:000adb30       cp932ext_uni2indx_page90   00000001800d9b30     iconv.obj
 0002:000adee8       hkscs2008_uni2indx_page46  00000001800d9ee8     iconv.obj
 0002:000adf20       koi8_u_page04              00000001800d9f20     iconv.obj
 0002:000adfb8       hkscs2001_uni2indx_page220 00000001800d9fb8     iconv.obj
 0002:000adfe0       nextstep_page01            00000001800d9fe0     iconv.obj
 0002:000ae048       iso8859_8_page20           00000001800da048     iconv.obj
 0002:000ae060       iso8859_10_2uni            00000001800da060     iconv.obj
 0002:000ae120       iso8859_10_page00          00000001800da120     iconv.obj
 0002:000ae200       iso8859_9_page00           00000001800da200     iconv.obj
 0002:000ae230       hkscs2001_uni2indx_page4b  00000001800da230     iconv.obj
 0002:000ae2a0       cp437_page00               00000001800da2a0     iconv.obj
 0002:000ae300       hkscs2004_uni2indx_page26b 00000001800da300     iconv.obj
 0002:000ae360       jisx0212_2uni_page29       00000001800da360     iconv.obj
 0002:000ae588       translit_page06            00000001800da588     iconv.obj
 0002:000ae5b0       gbkext1_2uni_page81        00000001800da5b0     iconv.obj
 0002:000b1530       cp932ext_uni2indx_page5b   00000001800dd530     iconv.obj
 0002:000b15f0       cp932ext_uni2indx_pagef9   00000001800dd5f0     iconv.obj
 0002:000b1640       translit_page0f            00000001800dd640     iconv.obj
 0002:000b1660       cns11643_inv_uni2indx_page30 00000001800dd660     iconv.obj
 0002:000b3250       hkscs2004_uni2indx_page4f  00000001800df250     iconv.obj
 0002:000b3280       sysdep_aliases             00000001800df280     iconv.obj
 0002:000b3500       hkscs2001_uni2indx_page6c  00000001800df500     iconv.obj
 0002:000b3580       iso8859_14_page1e_0        00000001800df580     iconv.obj
 0002:000b3610       jisx0213_to_ucs_pagestart  00000001800df610     iconv.obj
 0002:000b3a00       cns11643_inv_2charset      00000001800dfa00     iconv.obj
 0002:000dc3c0       iso8859_4_2uni             00000001801083c0     iconv.obj
 0002:000dc480       mac_turkish_page01         0000000180108480     iconv.obj
 0002:000dc500       cp1255_comp_table          0000000180108500     iconv.obj
 0002:000dc540       cp1046_page25              0000000180108540     iconv.obj
 0002:000dc560       mac_arabic_page00          0000000180108560     iconv.obj
 0002:000dc5c0       cp866_2uni                 00000001801085c0     iconv.obj
 0002:000dc660       cp1252_2uni                0000000180108660     iconv.obj
 0002:000dc6a0       isoir165ext_uni2indx_page1e 00000001801086a0     iconv.obj
 0002:000dc710       cp437_page25               0000000180108710     iconv.obj
 0002:000dc7c0       cp864_page00_1             00000001801087c0     iconv.obj
 0002:000dc820       hkscs2008_uni2indx_page40  0000000180108820     iconv.obj
 0002:000dc890       iso8859_2_page00           0000000180108890     iconv.obj
 0002:000dc970       hkscs2004_uni2indx_page20a 0000000180108970     iconv.obj
 0002:000dc9e0       cp852_page25               00000001801089e0     iconv.obj
 0002:000dca88       jamo_medial                0000000180108a88     iconv.obj
 0002:000dcab0       jisx0208_uni2indx_page25   0000000180108ab0     iconv.obj
 0002:000dcb10       jisx0208_uni2indx_page03   0000000180108b10     iconv.obj
 0002:000dcb68       mac_centraleurope_page20   0000000180108b68     iconv.obj
 0002:000dcba0       armscii_8_page05           0000000180108ba0     iconv.obj
 0002:000dcc00       cp50221_0212_ext_2uni      0000000180108c00     iconv.obj
 0002:000dcce0       cp855_page04               0000000180108ce0     iconv.obj
 0002:000dcd40       hkscs2001_uni2indx_page29c 0000000180108d40     iconv.obj
 0002:000dcd60       iso8859_15_page00          0000000180108d60     iconv.obj
 0002:000dcd80       gb18030ext_2uni_pagefe     0000000180108d80     iconv.obj
 0002:000dcf00       cp922_page00               0000000180108f00     iconv.obj
 0002:000dcf60       jisx0208_uni2indx_page00   0000000180108f60     iconv.obj
 0002:000dcfa0       translit_page22_4          0000000180108fa0     iconv.obj
 0002:000dd000       cp737_page25               0000000180109000     iconv.obj
 0002:000dd0a8       jamo_final_notinitial      00000001801090a8     iconv.obj
 0002:000dd0d0       cp1253_2uni                00000001801090d0     iconv.obj
 0002:000dd1d0       cp863_2uni                 00000001801091d0     iconv.obj
 0002:000dd2d0       mac_ukraine_2uni           00000001801092d0     iconv.obj
 0002:000dd3d0       hkscs2001_uni2indx_page3c  00000001801093d0     iconv.obj
 0002:000dd490       hkscs1999_uni2indx_page294 0000000180109490     iconv.obj
 0002:000dd510       cp856_2uni                 0000000180109510     iconv.obj
 0002:000dd610       cp1250_page00              0000000180109610     iconv.obj
 0002:000dd6f0       hkscs2001_uni2indx_page53  00000001801096f0     iconv.obj
 0002:000dd740       isoir165ext_uni2indx_page94 0000000180109740     iconv.obj
 0002:000dd980       cp861_page22               0000000180109980     iconv.obj
 0002:000dd9d0       hkscs2001_uni2indx_page97  00000001801099d0     iconv.obj
 0002:000dda90       iso8859_9_page01           0000000180109a90     iconv.obj
 0002:000ddae0       cp865_page22               0000000180109ae0     iconv.obj
 0002:000ddb30       ksc5601_2charset           0000000180109b30     iconv.obj
 0002:000e1b80       mac_ukraine_page04         000000018010db80     iconv.obj
 0002:000e1c20       hkscs2001_2charset         000000018010dc20     iconv.obj
 0002:000e1d10       hkscs2001_uni2indx_page76  000000018010dd10     iconv.obj
 0002:000e1dd0       gbkext_inv_uni2indx_page4e 000000018010ddd0     iconv.obj
 0002:000e3240       georgian_academy_2uni      000000018010f240     iconv.obj
 0002:000e3280       cp850_page25               000000018010f280     iconv.obj
 0002:000e3328       mac_thai_pagef8            000000018010f328     iconv.obj
 0002:000e3350       cp1258_page01              000000018010f350     iconv.obj
 0002:000e33c0       mac_cyrillic_page22        000000018010f3c0     iconv.obj
 0002:000e3430       georgian_academy_page01    000000018010f430     iconv.obj
 0002:000e3480       mac_centraleurope_2uni     000000018010f480     iconv.obj
 0002:000e3580       jisx0212_uni2indx_page4e   000000018010f580     iconv.obj
 0002:000e49f0       hkscs1999_uni2indx_page2f8 00000001801109f0     iconv.obj
 0002:000e4a70       cp932ext_2uni_pagefa       0000000180110a70     iconv.obj
 0002:000e4d80       gb18030uni_charset2uni_ranges 0000000180110d80     iconv.obj
 0002:000e50c0       translit_page20            00000001801110c0     iconv.obj
 0002:000e5170       mac_greek_page22           0000000180111170     iconv.obj
 0002:000e5190       hkscs2004_uni2indx_page97  0000000180111190     iconv.obj
 0002:000e51f0       cp1133_2uni_1              00000001801111f0     iconv.obj
 0002:000e5270       hkscs2001_uni2indx_page91  0000000180111270     iconv.obj
 0002:000e5330       hkscs2001_uni2indx_page8e  0000000180111330     iconv.obj
 0002:000e53b0       mac_turkish_2uni           00000001801113b0     iconv.obj
 0002:000e54b0       atarist_page00             00000001801114b0     iconv.obj
 0002:000e5510       mac_thai_page20            0000000180111510     iconv.obj
 0002:000e5530       gb18030ext_pagefe          0000000180111530     iconv.obj
 0002:000e5550       cp1255_page02              0000000180111550     iconv.obj
 0002:000e5570       cns11643_inv_uni2indx_pagefa 0000000180111570     iconv.obj
 0002:000e5580       cp860_2uni                 0000000180111580     iconv.obj
 0002:000e5d18       $unwind$?FunctionCallbackWrapper@imp@Nan@@YAXAEBV?$FunctionCallbackInfo@VValue@v8@@@v8@@@Z 0000000180111d18     binding.obj
 0002:000e5d2c       $unwind$??0Utf8String@Nan@@QEAA@V?$Local@VValue@v8@@@v8@@@Z 0000000180111d2c     binding.obj
 0002:000e5d38       $chain$1$??0Utf8String@Nan@@QEAA@V?$Local@VValue@v8@@@v8@@@Z 0000000180111d38     binding.obj
 0002:000e5d50       $chain$2$??0Utf8String@Nan@@QEAA@V?$Local@VValue@v8@@@v8@@@Z 0000000180111d50     binding.obj
 0002:000e5d60       $unwind$__acrt_stdio_free_buffer_nolock 0000000180111d60     libucrt:_freebuf.obj
 0002:000e5d60       $unwind$_clrfp             0000000180111d60     libucrt:fpctrl.obj
 0002:000e5d60       $unwind$_callnewh          0000000180111d60     libucrt:new_handler.obj
 0002:000e5d60       $unwind$_calloc_base       0000000180111d60     libucrt:calloc_base.obj
 0002:000e5d60       $unwind$__vcrt_FlsGetValue 0000000180111d60     libvcruntime:winapi_downlevel.obj
 0002:000e5d60       $unwind$__vcrt_FlsAlloc    0000000180111d60     libvcruntime:winapi_downlevel.obj
 0002:000e5d60       $unwind$__vcrt_uninitialize_locks 0000000180111d60     libvcruntime:locks.obj
 0002:000e5d60       $unwind$?DloadAcquireSectionWriteAccess@@YAXXZ 0000000180111d60     DelayImp:delayhlp.obj
 0002:000e5d60       $unwind$__vcrt_initialize_locks 0000000180111d60     libvcruntime:locks.obj
 0002:000e5d60       $unwind$__vcrt_freeptd     0000000180111d60     libvcruntime:per_thread_data.obj
 0002:000e5d60       $unwind$__std_type_info_destroy_list 0000000180111d60     libvcruntime:std_type_info.obj
 0002:000e5d60       $unwind$_clearfp           0000000180111d60     libucrt:ieee.obj
 0002:000e5d60       $unwind$__acrt_uninitialize_winapi_thunks 0000000180111d60     libucrt:winapi_thunks.obj
 0002:000e5d60       $unwind$?stream_is_at_end_of_file_nolock@@YA_NV__crt_stdio_stream@@@Z 0000000180111d60     libucrt:_flsbuf.obj
 0002:000e5d60       $unwind$__std_exception_destroy 0000000180111d60     libvcruntime:std_exception.obj
 0002:000e5d60       $unwind$??_Gtype_info@@UEAAPEAXI@Z 0000000180111d60     LIBCMT:std_type_info_static.obj
 0002:000e5d60       $unwind$??0bad_array_new_length@std@@QEAA@AEBV01@@Z 0000000180111d60     LIBCMT:throw_bad_alloc.obj
 0002:000e5d60       $unwind$??0bad_alloc@std@@QEAA@AEBV01@@Z 0000000180111d60     LIBCMT:throw_bad_alloc.obj
 0002:000e5d60       $unwind$__acrt_FlsAlloc    0000000180111d60     libucrt:winapi_thunks.obj
 0002:000e5d60       $unwind$__acrt_FlsFree     0000000180111d60     libucrt:winapi_thunks.obj
 0002:000e5d60       $unwind$__acrt_FlsGetValue 0000000180111d60     libucrt:winapi_thunks.obj
 0002:000e5d60       $unwind$??0exception@std@@QEAA@AEBV01@@Z 0000000180111d60     LIBCMT:throw_bad_alloc.obj
 0002:000e5d60       $unwind$__raise_securityfailure 0000000180111d60     LIBCMT:gs_report.obj
 0002:000e5d60       $unwind$??$invokeparameter@$0A@@?$WeakCallbackInfo@UIconv@?A0xd3ef0bfb@@@Nan@@CAXAEBV?$WeakCallbackInfo@V?$WeakCallbackInfo@UIconv@?A0xd3ef0bfb@@@Nan@@@v8@@@Z 0000000180111d60     binding.obj
 0002:000e5d60       $unwind$?try_cor_exit_process@@YAXI@Z 0000000180111d60     libucrt:exit.obj
 0002:000e5d60       $unwind$__scrt_initialize_onexit_tables 0000000180111d60     LIBCMT:utility.obj
 0002:000e5d60       $unwind$__scrt_uninitialize_crt 0000000180111d60     LIBCMT:utility.obj
 0002:000e5d60       $unwind$__scrt_initialize_crt 0000000180111d60     LIBCMT:utility.obj
 0002:000e5d60       $unwind$_malloc_base       0000000180111d60     libucrt:malloc_base.obj
 0002:000e5d60       $unwind$__acrt_allocate_buffer_for_argv 0000000180111d60     libucrt:argv_parsing.obj
 0002:000e5d60       $unwind$__vcrt_FlsFree     0000000180111d60     libvcruntime:winapi_downlevel.obj
 0002:000e5d60       $unwind$?exit_or_terminate_process@@YAXI@Z 0000000180111d60     libucrt:exit.obj
 0002:000e5d60       $unwind$?internal_isupper_l@@YA_NHQEAU__crt_locale_pointers@@@Z 0000000180111d60     libucrt:tolower_toupper.obj
 0002:000e5d60       $unwind$euc_jp_mbtowc      0000000180111d60     iconv.obj
 0002:000e5d60       $unwind$__acrt_update_locale_info 0000000180111d60     libucrt:locale_update.obj
 0002:000e5d60       $unwind$__acrt_update_multibyte_info 0000000180111d60     libucrt:locale_update.obj
 0002:000e5d60       $unwind$strcpy_s           0000000180111d60     libucrt:strcpy_s.obj
 0002:000e5d60       $unwind$fesetenv           0000000180111d60     libucrt:fesetenv.obj
 0002:000e5d60       $unwind$_fflush_nolock     0000000180111d60     libucrt:fflush.obj
 0002:000e5d60       $unwind$feholdexcept       0000000180111d60     libucrt:feholdexcept.obj
 0002:000e5d60       $unwind$__acrt_AppPolicyGetProcessTerminationMethodInternal 0000000180111d60     libucrt:winapi_thunks.obj
 0002:000e5d60       $unwind$__acrt_AppPolicyGetShowDeveloperDiagnosticInternal 0000000180111d60     libucrt:winapi_thunks.obj
 0002:000e5d60       $unwind$__acrt_uninitialize_stdio 0000000180111d60     libucrt:_file.obj
 0002:000e5d60       $unwind$fegetenv           0000000180111d60     libucrt:fegetenv.obj
 0002:000e5d60       $unwind$__acrt_getptd_head 0000000180111d60     libucrt:per_thread_data.obj
 0002:000e5d60       $unwind$initialize_pointers 0000000180111d60     libucrt:initialization.obj
 0002:000e5d60       $unwind$__acrt_initialize_locks 0000000180111d60     libucrt:locks.obj
 0002:000e5d60       $unwind$__acrt_AppPolicyGetWindowingModelInternal 0000000180111d60     libucrt:winapi_thunks.obj
 0002:000e5d60       $unwind$__acrt_freeptd     0000000180111d60     libucrt:per_thread_data.obj
 0002:000e5d60       $unwind$wcscpy_s           0000000180111d60     libucrt:wcscpy_s.obj
 0002:000e5d60       $unwind$__acrt_uninitialize_locks 0000000180111d60     libucrt:locks.obj
 0002:000e5d60       $unwind$uninitialize_allocated_memory 0000000180111d60     libucrt:initialization.obj
 0002:000e5d60       $unwind$__acrt_get_parent_window 0000000180111d60     libucrt:winapi_thunks.obj
 0002:000e5d60       $unwind$__acrt_get_process_end_policy 0000000180111d60     libucrt:win_policies.obj
 0002:000e5d60       $unwind$__acrt_get_developer_information_policy 0000000180111d60     libucrt:win_policies.obj
 0002:000e5d60       $unwind$wcscat_s           0000000180111d60     libucrt:wcscat_s.obj
 0002:000e5d60       $unwind$_set_statfp        0000000180111d60     libucrt:fpctrl.obj
 0002:000e5d60       $unwind$__acrt_get_windowing_model_policy 0000000180111d60     libucrt:win_policies.obj
 0002:000e5d60       $unwind$__scrt_release_startup_lock 0000000180111d60     LIBCMT:utility.obj
 0002:000e5d60       $unwind$_onexit            0000000180111d60     LIBCMT:utility.obj
 0002:000e5d60       $unwind$??2@YAPEAX_K@Z     0000000180111d60     LIBCMT:new_scalar.obj
 0002:000e5d60       $unwind$iso2022_jp3_reset  0000000180111d60     iconv.obj
 0002:000e5d60       $unwind$?WeakCallback@Iconv@?A0xd3ef0bfb@@SAXAEBV?$WeakCallbackInfo@UIconv@?A0xd3ef0bfb@@@Nan@@@Z 0000000180111d60     binding.obj
 0002:000e5d60       $unwind$euc_jisx0213_mbtowc 0000000180111d60     iconv.obj
 0002:000e5d60       $unwind$big5_2003_mbtowc   0000000180111d60     iconv.obj
 0002:000e5d68       $unwind$?Initialize@Iconv@?A0xd3ef0bfb@@SAXV?$Local@VObject@v8@@@v8@@@Z 0000000180111d68     binding.obj
 0002:000e5d78       $unwind$?Make@Iconv@?A0xd3ef0bfb@@SAXAEBV?$FunctionCallbackInfo@VValue@v8@@@Nan@@@Z 0000000180111d78     binding.obj
 0002:000e5d90       $chain$1$?Make@Iconv@?A0xd3ef0bfb@@SAXAEBV?$FunctionCallbackInfo@VValue@v8@@@Nan@@@Z 0000000180111d90     binding.obj
 0002:000e5da8       $chain$2$?Make@Iconv@?A0xd3ef0bfb@@SAXAEBV?$FunctionCallbackInfo@VValue@v8@@@Nan@@@Z 0000000180111da8     binding.obj
 0002:000e5db8       $unwind$?Convert@Iconv@?A0xd3ef0bfb@@SAXAEBV?$FunctionCallbackInfo@VValue@v8@@@Nan@@@Z 0000000180111db8     binding.obj
 0002:000e5dd0       $unwind$??$SetMethod@VObject@v8@@VLocal@2@@Nan@@YAXV?$Local@VObject@v8@@@v8@@PEBDP6AXAEBV?$FunctionCallbackInfo@VValue@v8@@@0@@Z@Z 0000000180111dd0     binding.obj
 0002:000e5ddc       $chain$3$??$SetMethod@VObject@v8@@VLocal@2@@Nan@@YAXV?$Local@VObject@v8@@@v8@@PEBDP6AXAEBV?$FunctionCallbackInfo@VValue@v8@@@0@@Z@Z 0000000180111ddc     binding.obj
 0002:000e5dfc       $chain$4$??$SetMethod@VObject@v8@@VLocal@2@@Nan@@YAXV?$Local@VObject@v8@@@v8@@PEBDP6AXAEBV?$FunctionCallbackInfo@VValue@v8@@@0@@Z@Z 0000000180111dfc     binding.obj
 0002:000e5e10       $chain$5$??$SetMethod@VObject@v8@@VLocal@2@@Nan@@YAXV?$Local@VObject@v8@@@v8@@PEBDP6AXAEBV?$FunctionCallbackInfo@VValue@v8@@@0@@Z@Z 0000000180111e10     binding.obj
 0002:000e5e20       $chain$6$??$SetMethod@VObject@v8@@VLocal@2@@Nan@@YAXV?$Local@VObject@v8@@@v8@@PEBDP6AXAEBV?$FunctionCallbackInfo@VValue@v8@@@0@@Z@Z 0000000180111e20     binding.obj
 0002:000e5e30       $unwind$??$SetMethodAux@V?$Local@VObject@v8@@@v8@@@imp@Nan@@YAXV?$Local@VObject@v8@@@v8@@V?$Local@VString@v8@@@3@V?$Local@VFunctionTemplate@v8@@@3@ZZ 0000000180111e30     binding.obj
 0002:000e5e40       $unwind$??_Gbad_array_new_length@std@@UEAAPEAXI@Z 0000000180111e40     LIBCMT:throw_bad_alloc.obj
 0002:000e5e40       $unwind$_updatetlocinfoEx_nolock 0000000180111e40     libucrt:locale_refcounting.obj
 0002:000e5e40       $unwind$_close_nolock      0000000180111e40     libucrt:close.obj
 0002:000e5e40       $unwind$?force_decimal_point@__crt_stdio_output@@YAXPEADQEAU__crt_locale_pointers@@@Z 0000000180111e40     libucrt:output.obj
 0002:000e5e40       $unwind$__acrt_stdio_begin_temporary_buffering_nolock 0000000180111e40     libucrt:_sftbuf.obj
 0002:000e5e40       $unwind$__acrt_uninitialize_lowio 0000000180111e40     libucrt:ioinit.obj
 0002:000e5e40       $unwind$__acrt_execute_uninitializers 0000000180111e40     libucrt:shared_initialization.obj
 0002:000e5e40       $unwind$wcsncat_s          0000000180111e40     libucrt:wcsncat_s.obj
 0002:000e5e40       $unwind$?replace_current_thread_locale_nolock@@YAXQEAU__acrt_ptd@@QEAU__crt_locale_data@@@Z 0000000180111e40     libucrt:per_thread_data.obj
 0002:000e5e40       $unwind$__acrt_stdio_allocate_buffer_nolock 0000000180111e40     libucrt:_getbuf.obj
 0002:000e5e40       $unwind$__acrt_errno_map_os_error 0000000180111e40     libucrt:errno.obj
 0002:000e5e40       $unwind$__vcrt_FlsSetValue 0000000180111e40     libvcruntime:winapi_downlevel.obj
 0002:000e5e40       $unwind$dec_hanyu_wctomb   0000000180111e40     iconv.obj
 0002:000e5e40       $unwind$_RTC_Terminate     0000000180111e40     LIBCMT:initsect.obj
 0002:000e5e40       $unwind$_RTC_Initialize    0000000180111e40     LIBCMT:initsect.obj
 0002:000e5e40       $unwind$??_Gbad_alloc@std@@UEAAPEAXI@Z 0000000180111e40     LIBCMT:throw_bad_alloc.obj
 0002:000e5e40       $unwind$??_Gexception@std@@UEAAPEAXI@Z 0000000180111e40     LIBCMT:throw_bad_alloc.obj
 0002:000e5e40       $unwind$??$invokeparameter@$00@?$WeakCallbackInfo@UIconv@?A0xd3ef0bfb@@@Nan@@CAXAEBV?$WeakCallbackInfo@V?$WeakCallbackInfo@UIconv@?A0xd3ef0bfb@@@Nan@@@v8@@@Z 0000000180111e40     binding.obj
 0002:000e5e40       $unwind$?DloadGetSRWLockFunctionPointers@@YAEXZ 0000000180111e40     DelayImp:delayhlp.obj
 0002:000e5e40       $unwind$cp1258_mbtowc      0000000180111e40     iconv.obj
 0002:000e5e40       $unwind$tcvn_mbtowc        0000000180111e40     iconv.obj
 0002:000e5e40       $unwind$euc_cn_wctomb      0000000180111e40     iconv.obj
 0002:000e5e40       $unwind$euc_tw_wctomb      0000000180111e40     iconv.obj
 0002:000e5e40       $unwind$ces_big5_wctomb    0000000180111e40     iconv.obj
 0002:000e5e40       $unwind$euc_kr_wctomb      0000000180111e40     iconv.obj
 0002:000e5e40       $unwind$??$common_initialize_environment_nolock@D@@YAHXZ 0000000180111e40     libucrt:environment_initialization.obj
 0002:000e5e40       $unwind$dec_kanji_wctomb   0000000180111e40     iconv.obj
 0002:000e5e40       $unwind$__acrt_FlsSetValue 0000000180111e40     libucrt:winapi_thunks.obj
 0002:000e5e40       $unwind$__acrt_fp_strflt_to_string 0000000180111e40     libucrt:_fptostr.obj
 0002:000e5e40       $unwind$__acrt_LocaleNameToLCID 0000000180111e40     libucrt:winapi_thunks.obj
 0002:000e5e40       $unwind$_realloc_base      0000000180111e40     libucrt:realloc_base.obj
 0002:000e5e40       $unwind$_fclose_nolock     0000000180111e40     libucrt:fclose.obj
 0002:000e5e40       $unwind$strncpy_s          0000000180111e40     libucrt:strncpy_s.obj
 0002:000e5e40       $unwind$uc_to_mb_write_replacement 0000000180111e40     iconv.obj
 0002:000e5e40       $unwind$big5_2003_wctomb   0000000180111e40     iconv.obj
 0002:000e5e40       $unwind$__acrt_can_show_message_box 0000000180111e40     libucrt:winapi_thunks.obj
 0002:000e5e40       $unwind$_initterm_e        0000000180111e40     libucrt:initterm.obj
 0002:000e5e4c       $unwind$??$type_case_integer_parse_into_buffer@_K@?$output_processor@_WV?$stream_output_adapter@_W@__crt_stdio_output@@V?$standard_base@_WV?$stream_output_adapter@_W@__crt_stdio_output@@@2@@__crt_stdio_output@@AEAAX_KI_N@Z 0000000180111e4c     libucrt:output.obj
 0002:000e5e4c       $unwind$hkscs2001_wctomb   0000000180111e4c     iconv.obj
 0002:000e5e4c       $unwind$??$type_case_integer_parse_into_buffer@I@?$output_processor@_WV?$string_output_adapter@_W@__crt_stdio_output@@V?$standard_base@_WV?$string_output_adapter@_W@__crt_stdio_output@@@2@@__crt_stdio_output@@AEAAXII_N@Z 0000000180111e4c     libucrt:output.obj
 0002:000e5e4c       $unwind$??$type_case_integer_parse_into_buffer@_K@?$output_processor@_WV?$string_output_adapter@_W@__crt_stdio_output@@V?$standard_base@_WV?$string_output_adapter@_W@__crt_stdio_output@@@2@@__crt_stdio_output@@AEAAX_KI_N@Z 0000000180111e4c     libucrt:output.obj
 0002:000e5e4c       $unwind$cp950ext_wctomb    0000000180111e4c     iconv.obj
 0002:000e5e4c       $unwind$gbkext_inv_wctomb  0000000180111e4c     iconv.obj
 0002:000e5e4c       $unwind$aliases_lookup     0000000180111e4c     iconv.obj
 0002:000e5e4c       $unwind$hkscs2004_wctomb   0000000180111e4c     iconv.obj
 0002:000e5e4c       $unwind$utf32_mbtowc       0000000180111e4c     iconv.obj
 0002:000e5e4c       $unwind$hkscs2008_wctomb   0000000180111e4c     iconv.obj
 0002:000e5e4c       $unwind$ucs4_mbtowc        0000000180111e4c     iconv.obj
 0002:000e5e4c       $unwind$??$type_case_integer_parse_into_buffer@I@?$output_processor@_WV?$stream_output_adapter@_W@__crt_stdio_output@@V?$standard_base@_WV?$stream_output_adapter@_W@__crt_stdio_output@@@2@@__crt_stdio_output@@AEAAXII_N@Z 0000000180111e4c     libucrt:output.obj
 0002:000e5e4c       $unwind$c99_mbtowc         0000000180111e4c     iconv.obj
 0002:000e5e4c       $unwind$ucs2_mbtowc        0000000180111e4c     iconv.obj
 0002:000e5e4c       $unwind$tcvn_wctomb        0000000180111e4c     iconv.obj
 0002:000e5e54       $unwind$utf16_mbtowc       0000000180111e54     iconv.obj
 0002:000e5e54       $unwind$cp1255_mbtowc      0000000180111e54     iconv.obj
 0002:000e5e60       $unwind$utf7_mbtowc        0000000180111e60     iconv.obj
 0002:000e5e60       $unwind$?try_get_function@@YAPEAXW4function_id@?A0x391cf84c@@QEBDQEBW4module_id@2@2@Z 0000000180111e60     libucrt:winapi_thunks.obj
 0002:000e5e60       $unwind$?try_get_function@@YAPEAXW4function_id@?A0xa3f614c4@@QEBDQEBW4module_id@2@2@Z 0000000180111e60     libvcruntime:winapi_downlevel.obj
 0002:000e5e7c       $unwind$big5hkscs1999_mbtowc 0000000180111e7c     iconv.obj
 0002:000e5e7c       $unwind$euc_jisx0213_wctomb 0000000180111e7c     iconv.obj
 0002:000e5e7c       $unwind$shift_jisx0213_wctomb 0000000180111e7c     iconv.obj
 0002:000e5e7c       $unwind$_initterm          0000000180111e7c     libucrt:initterm.obj
 0002:000e5e7c       $unwind$_recalloc_base     0000000180111e7c     libucrt:recalloc.obj
 0002:000e5e7c       $unwind$__acrt_free_locale 0000000180111e7c     libucrt:locale_refcounting.obj
 0002:000e5e7c       $unwind$utf7_wctomb        0000000180111e7c     iconv.obj
 0002:000e5e7c       $unwind$?setSBCS@@YAXPEAU__crt_multibyte_data@@@Z 0000000180111e7c     libucrt:mbctype.obj
 0002:000e5e7c       $unwind$_wassert           0000000180111e7c     libucrt:assert.obj
 0002:000e5e7c       $unwind$__acrt_show_wide_message_box 0000000180111e7c     libucrt:crtmbox.obj
 0002:000e5e7c       $unwind$_seh_filter_exe    0000000180111e7c     libucrt:exception_filter.obj
 0002:000e5e7c       $unwind$??$ensure_buffer_is_big_enough@_W@formatting_buffer@__crt_stdio_output@@QEAA_N_K@Z 0000000180111e7c     libucrt:output.obj
 0002:000e5e7c       $unwind$__scrt_dllmain_exception_filter 0000000180111e7c     LIBCMT:utility.obj
 0002:000e5e7c       $unwind$??$ensure_buffer_is_big_enough@D@formatting_buffer@__crt_stdio_output@@QEAA_N_K@Z 0000000180111e7c     libucrt:output.obj
 0002:000e5e7c       $unwind$big5hkscs2004_mbtowc 0000000180111e7c     iconv.obj
 0002:000e5e7c       $unwind$__acrt_lowio_create_handle_array 0000000180111e7c     libucrt:osfinfo.obj
 0002:000e5e7c       $unwind$big5hkscs2001_mbtowc 0000000180111e7c     iconv.obj
 0002:000e5e90       $unwind$uninitialize_allocated_io_buffers 0000000180111e90     libucrt:initialization.obj
 0002:000e5e90       $unwind$__vcrt_uninitialize 0000000180111e90     libvcruntime:initialization.obj
 0002:000e5e90       $unwind$__vcrt_initialize  0000000180111e90     libvcruntime:initialization.obj
 0002:000e5e90       $unwind$__pctype_func      0000000180111e90     libucrt:ctype.obj
 0002:000e5e90       $unwind$_msize_base        0000000180111e90     libucrt:msize.obj
 0002:000e5e90       $unwind$__scrt_initialize_default_local_stdio_options 0000000180111e90     LIBCMT:default_local_stdio_options.obj
 0002:000e5e90       $unwind$_isatty            0000000180111e90     libucrt:isatty.obj
 0002:000e5e90       $unwind$_fileno            0000000180111e90     libucrt:fileno.obj
 0002:000e5e90       $unwind$__acrt_AreFileApisANSI 0000000180111e90     libucrt:winapi_thunks.obj
 0002:000e5e90       $unwind$uninitialize_environment 0000000180111e90     libucrt:initialization.obj
 0002:000e5e90       $unwind$_set_errno_from_matherr 0000000180111e90     libucrt:fpexcept.obj
 0002:000e5e90       $unwind$_statfp            0000000180111e90     libucrt:fpctrl.obj
 0002:000e5e90       $unwind$?load_exe_hook@@YAP6A_JXZIPEAUDelayLoadInfo@@@Z 0000000180111e90     win_delay_load_hook.obj
 0002:000e5e90       $unwind$__report_rangecheckfailure 0000000180111e90     LIBCMT:gs_report.obj
 0002:000e5e90       $unwind$dec_hanyu_mbtowc   0000000180111e90     iconv.obj
 0002:000e5e90       $unwind$__dcrt_terminate_console_output 0000000180111e90     libucrt:initcon.obj
 0002:000e5e90       $unwind$?dllmain_crt_dispatch@@YAHQEAUHINSTANCE__@@KQEAX@Z 0000000180111e90     LIBCMT:dll_dllmain.obj
 0002:000e5e90       $unwind$__acrt_DownlevelLocaleNameToLCID 0000000180111e90     libucrt:lcidtoname_downlevel.obj
 0002:000e5e90       $unwind$??$uninitialize_environment_internal@_W@@YAXAEAPEAPEA_W@Z 0000000180111e90     libucrt:environment_initialization.obj
 0002:000e5e90       $unwind$??$uninitialize_environment_internal@D@@YAXAEAPEAPEAD@Z 0000000180111e90     libucrt:environment_initialization.obj
 0002:000e5e90       $unwind$__dcrt_uninitialize_environments_nolock 0000000180111e90     libucrt:environment_initialization.obj
 0002:000e5e90       $unwind$tolower            0000000180111e90     libucrt:tolower_toupper.obj
 0002:000e5e90       $unwind$utf7_reset         0000000180111e90     iconv.obj
 0002:000e5e90       $unwind$__acrt_initialize_command_line 0000000180111e90     libucrt:argv_data.obj
 0002:000e5e90       $unwind$_invoke_watson     0000000180111e90     libucrt:invalid_parameter.obj
 0002:000e5e90       $unwind$__scrt_dllmain_crt_thread_detach 0000000180111e90     LIBCMT:utility.obj
 0002:000e5e90       $unwind$euc_tw_mbtowc      0000000180111e90     iconv.obj
 0002:000e5e90       $unwind$__scrt_dllmain_crt_thread_attach 0000000180111e90     LIBCMT:utility.obj
 0002:000e5e90       $unwind$__scrt_dllmain_uninitialize_critical 0000000180111e90     LIBCMT:utility.obj
 0002:000e5e90       $unwind$__scrt_dllmain_uninitialize_c 0000000180111e90     LIBCMT:utility.obj
 0002:000e5e90       $unwind$__scrt_dllmain_after_initialize_c 0000000180111e90     LIBCMT:utility.obj
 0002:000e5e90       $unwind$__scrt_dllmain_before_initialize_c 0000000180111e90     LIBCMT:utility.obj
 0002:000e5e90       $unwind$__scrt_acquire_startup_lock 0000000180111e90     LIBCMT:utility.obj
 0002:000e5e90       $unwind$initialize_c       0000000180111e90     libucrt:initialization.obj
 0002:000e5e90       $unwind$__acrt_thread_detach 0000000180111e90     libucrt:initialization.obj
 0002:000e5e90       $unwind$__acrt_initialize_heap 0000000180111e90     libucrt:heap_handle.obj
 0002:000e5e90       $unwind$_get_osfhandle     0000000180111e90     libucrt:osfinfo.obj
 0002:000e5e90       $unwind$__acrt_initialize_ptd 0000000180111e90     libucrt:per_thread_data.obj
 0002:000e5e90       $unwind$__acrt_thread_attach 0000000180111e90     libucrt:initialization.obj
 0002:000e5e90       $unwind$__acrt_uninitialize_critical 0000000180111e90     libucrt:initialization.obj
 0002:000e5e90       $unwind$__acrt_uninitialize_ptd 0000000180111e90     libucrt:per_thread_data.obj
 0002:000e5e90       $unwind$__acrt_uninitialize 0000000180111e90     libucrt:initialization.obj
 0002:000e5e90       $unwind$?state_case_size@?$output_processor@_WV?$stream_output_adapter@_W@__crt_stdio_output@@V?$standard_base@_WV?$stream_output_adapter@_W@__crt_stdio_output@@@2@@__crt_stdio_output@@AEAA_NXZ 0000000180111e90     libucrt:output.obj
 0002:000e5e90       $unwind$?__c32rtomb_utf8@__crt_mbstring@@YA_KPEAD_UPEAU_Mbstatet@@@Z 0000000180111e90     libucrt:c32rtomb.obj
 0002:000e5e90       $unwind$?state_case_size@?$output_processor@_WV?$string_output_adapter@_W@__crt_stdio_output@@V?$standard_base@_WV?$string_output_adapter@_W@__crt_stdio_output@@@2@@__crt_stdio_output@@AEAA_NXZ 0000000180111e90     libucrt:output.obj
 0002:000e5e90       $unwind$shift_jisx0213_mbtowc 0000000180111e90     iconv.obj
 0002:000e5e90       $unwind$__acrt_initialize_multibyte 0000000180111e90     libucrt:mbctype.obj
 0002:000e5e90       $unwind$_set_error_mode    0000000180111e90     libucrt:set_error_mode.obj
 0002:000e5e90       $unwind$__acrt_update_thread_multibyte_data 0000000180111e90     libucrt:mbctype.obj
 0002:000e5e90       $unwind$__acrt_release_locale_ref 0000000180111e90     libucrt:locale_refcounting.obj
 0002:000e5e90       $unwind$_stricmp           0000000180111e90     libucrt:stricmp.obj
 0002:000e5e90       $unwind$abort              0000000180111e90     libucrt:abort.obj
 0002:000e5e90       $unwind$__doserrno         0000000180111e90     libucrt:errno.obj
 0002:000e5e90       $unwind$_errno             0000000180111e90     libucrt:errno.obj
 0002:000e5e90       $unwind$atexit             0000000180111e90     LIBCMT:utility.obj
 0002:000e5e90       $unwind$__GSHandlerCheck   0000000180111e90     LIBCMT:gshandler.obj
 0002:000e5e90       $unwind$?initialize_multibyte@@YAHXZ 0000000180111e90     libucrt:multibyte_initializer.obj
 0002:000e5e90       $unwind$?DloadReleaseSectionWriteAccess@@YAXXZ 0000000180111e90     DelayImp:delayhlp.obj
 0002:000e5e90       $unwind$__vcrt_freefls     0000000180111e90     libvcruntime:per_thread_data.obj
 0002:000e5e90       $unwind$__vcrt_uninitialize_ptd 0000000180111e90     libvcruntime:per_thread_data.obj
 0002:000e5e90       $unwind$__vcrt_initialize_ptd 0000000180111e90     libvcruntime:per_thread_data.obj
 0002:000e5e90       $unwind$__vcrt_thread_detach 0000000180111e90     libvcruntime:initialization.obj
 0002:000e5e90       $unwind$__vcrt_thread_attach 0000000180111e90     libvcruntime:initialization.obj
 0002:000e5e90       $unwind$__vcrt_uninitialize_critical 0000000180111e90     libvcruntime:initialization.obj
 0002:000e5e98       $unwind$johab_mbtowc       0000000180111e98     iconv.obj
 0002:000e5e98       $unwind$cp1255_wctomb      0000000180111e98     iconv.obj
 0002:000e5e98       $unwind$cp1258_wctomb      0000000180111e98     iconv.obj
 0002:000e5e98       $unwind$jisx0208_wctomb    0000000180111e98     iconv.obj
 0002:000e5e98       $unwind$c99_wctomb         0000000180111e98     iconv.obj
 0002:000e5ea0       $chain$0$c99_wctomb        0000000180111ea0     iconv.obj
 0002:000e5eb4       $chain$2$c99_wctomb        0000000180111eb4     iconv.obj
 0002:000e5ec8       $unwind$java_mbtowc        0000000180111ec8     iconv.obj
 0002:000e5ed4       $chain$0$java_mbtowc       0000000180111ed4     iconv.obj
 0002:000e5ee8       $chain$6$java_mbtowc       0000000180111ee8     iconv.obj
 0002:000e5ee8       $chain$2$java_mbtowc       0000000180111ee8     iconv.obj
 0002:000e5ee8       $chain$4$java_mbtowc       0000000180111ee8     iconv.obj
 0002:000e5efc       $chain$0$cp1255_wctomb     0000000180111efc     iconv.obj
 0002:000e5f10       $chain$14$cp1255_wctomb    0000000180111f10     iconv.obj
 0002:000e5f10       $chain$6$cp1255_wctomb     0000000180111f10     iconv.obj
 0002:000e5f10       $chain$4$cp1255_wctomb     0000000180111f10     iconv.obj
 0002:000e5f10       $chain$12$cp1255_wctomb    0000000180111f10     iconv.obj
 0002:000e5f10       $chain$2$cp1255_wctomb     0000000180111f10     iconv.obj
 0002:000e5f10       $chain$8$cp1255_wctomb     0000000180111f10     iconv.obj
 0002:000e5f10       $chain$10$cp1255_wctomb    0000000180111f10     iconv.obj
 0002:000e5f24       $chain$0$cp1258_wctomb     0000000180111f24     iconv.obj
 0002:000e5f38       $chain$10$cp1258_wctomb    0000000180111f38     iconv.obj
 0002:000e5f38       $chain$4$cp1258_wctomb     0000000180111f38     iconv.obj
 0002:000e5f38       $chain$8$cp1258_wctomb     0000000180111f38     iconv.obj
 0002:000e5f38       $chain$2$cp1258_wctomb     0000000180111f38     iconv.obj
 0002:000e5f38       $chain$6$cp1258_wctomb     0000000180111f38     iconv.obj
 0002:000e5f4c       $chain$0$jisx0208_wctomb   0000000180111f4c     iconv.obj
 0002:000e5f60       $chain$2$jisx0208_wctomb   0000000180111f60     iconv.obj
 0002:000e5f74       $chain$3$jisx0208_wctomb   0000000180111f74     iconv.obj
 0002:000e5f84       $unwind$_exception_enabled 0000000180111f84     libucrt:libm_error.obj
 0002:000e5f84       $unwind$johab_wctomb       0000000180111f84     iconv.obj
 0002:000e5f84       $unwind$??$common_lseek_nolock@_J@@YA_JH_JH@Z 0000000180111f84     libucrt:lseek.obj
 0002:000e5f84       $unwind$cp950_wctomb       0000000180111f84     iconv.obj
 0002:000e5f84       $unwind$??R<lambda_ca71763b3c0644891230e4f79ea54fa6>@@QEBAHXZ 0000000180111f84     libucrt:setvbuf.obj
 0002:000e5f84       $unwind$cp936_mbtowc       0000000180111f84     iconv.obj
 0002:000e5f84       $unwind$ces_gbk_wctomb     0000000180111f84     iconv.obj
 0002:000e5f84       $unwind$__acrt_stdio_flush_nolock 0000000180111f84     libucrt:fflush.obj
 0002:000e5f84       $unwind$iso2022_jp_mbtowc  0000000180111f84     iconv.obj
 0002:000e5f84       $unwind$__vcrt_getptd_noexit 0000000180111f84     libvcruntime:per_thread_data.obj
 0002:000e5f84       $unwind$_DllMainCRTStartup 0000000180111f84     LIBCMT:dll_dllmain.obj
 0002:000e5f84       $unwind$__acrt_getptd      0000000180111f84     libucrt:per_thread_data.obj
 0002:000e5f84       $unwind$??0_LocaleUpdate@@QEAA@QEAU__crt_locale_pointers@@@Z 0000000180111f84     libucrt:stricmp.obj
 0002:000e5f84       $unwind$?free_crt_array_internal@@YAXQEAPEBX_K@Z 0000000180111f84     libucrt:inittime.obj
 0002:000e5f84       $unwind$__vcrt_InitializeCriticalSectionEx 0000000180111f84     libvcruntime:winapi_downlevel.obj
 0002:000e5f84       $unwind$isoir165_mbtowc    0000000180111f84     iconv.obj
 0002:000e5f84       $unwind$__acrt_getptd_noexit 0000000180111f84     libucrt:per_thread_data.obj
 0002:000e5f84       $unwind$gbk_wctomb         0000000180111f84     iconv.obj
 0002:000e5f84       $unwind$__acrt_execute_initializers 0000000180111f84     libucrt:shared_initialization.obj
 0002:000e5f84       $unwind$__acrt_InitializeCriticalSectionEx 0000000180111f84     libucrt:winapi_thunks.obj
 0002:000e5f84       $unwind$?type_case_s@?$output_processor@_WV?$string_output_adapter@_W@__crt_stdio_output@@V?$standard_base@_WV?$string_output_adapter@_W@__crt_stdio_output@@@2@@__crt_stdio_output@@AEAA_NXZ 0000000180111f84     libucrt:output.obj
 0002:000e5f84       $unwind$__acrt_stdio_flush_and_write_narrow_nolock 0000000180111f84     libucrt:_flsbuf.obj
 0002:000e5f84       $unwind$memcpy_s           0000000180111f84     libucrt:cfout.obj
 0002:000e5f84       $unwind$?type_case_Z@?$output_processor@_WV?$stream_output_adapter@_W@__crt_stdio_output@@V?$standard_base@_WV?$stream_output_adapter@_W@__crt_stdio_output@@@2@@__crt_stdio_output@@AEAA_NXZ 0000000180111f84     libucrt:output.obj
 0002:000e5f84       $unwind$?type_case_s@?$output_processor@_WV?$stream_output_adapter@_W@__crt_stdio_output@@V?$standard_base@_WV?$stream_output_adapter@_W@__crt_stdio_output@@@2@@__crt_stdio_output@@AEAA_NXZ 0000000180111f84     libucrt:output.obj
 0002:000e5f84       $unwind$?type_case_n@?$output_processor@_WV?$stream_output_adapter@_W@__crt_stdio_output@@V?$standard_base@_WV?$stream_output_adapter@_W@__crt_stdio_output@@@2@@__crt_stdio_output@@AEAA_NXZ 0000000180111f84     libucrt:output.obj
 0002:000e5f84       $unwind$?type_case_n@?$output_processor@_WV?$string_output_adapter@_W@__crt_stdio_output@@V?$standard_base@_WV?$string_output_adapter@_W@__crt_stdio_output@@@2@@__crt_stdio_output@@AEAA_NXZ 0000000180111f84     libucrt:output.obj
 0002:000e5f84       $unwind$?type_case_Z@?$output_processor@_WV?$string_output_adapter@_W@__crt_stdio_output@@V?$standard_base@_WV?$string_output_adapter@_W@__crt_stdio_output@@@2@@__crt_stdio_output@@AEAA_NXZ 0000000180111f84     libucrt:output.obj
 0002:000e5f84       $unwind$sjis_wctomb        0000000180111f84     iconv.obj
 0002:000e5f84       $unwind$__acrt_stdio_flush_and_write_wide_nolock 0000000180111f84     libucrt:_flsbuf.obj
 0002:000e5f84       $unwind$cp932_wctomb       0000000180111f84     iconv.obj
 0002:000e5f94       $unwind$strpbrk            0000000180111f94     libucrt:strpbrk.obj
 0002:000e5f94       $unwind$isoir165_wctomb    0000000180111f94     iconv.obj
 0002:000e5fa4       $unwind$?DloadObtainSection@@YAPEAXPEAK0@Z 0000000180111fa4     DelayImp:delayhlp.obj
 0002:000e5fa4       $unwind$gbk_mbtowc         0000000180111fa4     iconv.obj
 0002:000e5fb4       $unwind$euc_jp_wctomb      0000000180111fb4     iconv.obj
 0002:000e5fb4       $unwind$cp936_wctomb       0000000180111fb4     iconv.obj
 0002:000e5fc8       $unwind$hz_wctomb          0000000180111fc8     iconv.obj
 0002:000e5fc8       $unwind$iso2022_kr_wctomb  0000000180111fc8     iconv.obj
 0002:000e5fc8       $unwind$iso2022_jp_wctomb  0000000180111fc8     iconv.obj
 0002:000e5fdc       $unwind$iso2022_jp1_mbtowc 0000000180111fdc     iconv.obj
 0002:000e5ff4       $unwind$iso2022_jp1_wctomb 0000000180111ff4     iconv.obj
 0002:000e600c       $unwind$??R<lambda_f03950bc5685219e0bcd2087efbe011e>@@QEBAHXZ 000000018011200c     libucrt:onexit.obj
 0002:000e600c       $unwind$?type_case_integer@?$output_processor@_WV?$string_output_adapter@_W@__crt_stdio_output@@V?$standard_base@_WV?$string_output_adapter@_W@__crt_stdio_output@@@2@@__crt_stdio_output@@AEAA_NI_N@Z 000000018011200c     libucrt:output.obj
 0002:000e600c       $unwind$iso2022_jp2_mbtowc 000000018011200c     iconv.obj
 0002:000e600c       $unwind$?type_case_integer@?$output_processor@_WV?$stream_output_adapter@_W@__crt_stdio_output@@V?$standard_base@_WV?$stream_output_adapter@_W@__crt_stdio_output@@@2@@__crt_stdio_output@@AEAA_NI_N@Z 000000018011200c     libucrt:output.obj
 0002:000e600c       $unwind$??$common_xtox@K_W@@YAHKQEA_W_KI_N@Z 000000018011200c     libucrt:xtoa.obj
 0002:000e6024       $unwind$iso2022_jp2_wctomb 0000000180112024     iconv.obj
 0002:000e6038       $chain$1$iso2022_jp2_wctomb 0000000180112038     iconv.obj
 0002:000e6050       $chain$3$iso2022_jp2_wctomb 0000000180112050     iconv.obj
 0002:000e6068       $unwind$iso2022_jpms_mbtowc 0000000180112068     iconv.obj
 0002:000e6084       $unwind$iso2022_jpms_wctomb 0000000180112084     iconv.obj
 0002:000e6098       $unwind$gb18030_mbtowc     0000000180112098     iconv.obj
 0002:000e60a8       $chain$1$gb18030_mbtowc    00000001801120a8     iconv.obj
 0002:000e60c0       $chain$2$gb18030_mbtowc    00000001801120c0     iconv.obj
 0002:000e60d0       $unwind$gb18030_wctomb     00000001801120d0     iconv.obj
 0002:000e60d0       $unwind$?type_case_c_tchar@?$output_processor@_WV?$string_output_adapter@_W@__crt_stdio_output@@V?$standard_base@_WV?$string_output_adapter@_W@__crt_stdio_output@@@2@@__crt_stdio_output@@AEAA_N_W@Z 00000001801120d0     libucrt:output.obj
 0002:000e60d0       $unwind$?type_case_c_tchar@?$output_processor@_WV?$stream_output_adapter@_W@__crt_stdio_output@@V?$standard_base@_WV?$stream_output_adapter@_W@__crt_stdio_output@@@2@@__crt_stdio_output@@AEAA_N_W@Z 00000001801120d0     libucrt:output.obj
 0002:000e60e0       $chain$0$gb18030_wctomb    00000001801120e0     iconv.obj
 0002:000e60f4       $chain$1$gb18030_wctomb    00000001801120f4     iconv.obj
 0002:000e6104       $unwind$iso2022_cn_mbtowc  0000000180112104     iconv.obj
 0002:000e611c       $unwind$iso2022_cn_wctomb  000000018011211c     iconv.obj
 0002:000e6134       $unwind$iso2022_cn_ext_mbtowc 0000000180112134     iconv.obj
 0002:000e6150       $unwind$iso2022_cn_ext_wctomb 0000000180112150     iconv.obj
 0002:000e6168       $unwind$hz_mbtowc          0000000180112168     iconv.obj
 0002:000e617c       $unwind$cp950_mbtowc       000000018011217c     iconv.obj
 0002:000e6188       $chain$1$cp950_mbtowc      0000000180112188     iconv.obj
 0002:000e61a0       $chain$3$cp950_mbtowc      00000001801121a0     iconv.obj
 0002:000e61b8       $unwind$??R<lambda_22ebabd17bc4fa466a2aca6d8deb888d>@@QEBAHXZ 00000001801121b8     libucrt:onexit.obj
 0002:000e61b8       $unwind$big5hkscs2008_wctomb 00000001801121b8     iconv.obj
 0002:000e61b8       $unwind$big5hkscs2004_wctomb 00000001801121b8     iconv.obj
 0002:000e61b8       $unwind$big5hkscs2001_wctomb 00000001801121b8     iconv.obj
 0002:000e61b8       $unwind$big5hkscs1999_wctomb 00000001801121b8     iconv.obj
 0002:000e61d0       $unwind$big5hkscs2008_mbtowc 00000001801121d0     iconv.obj
 0002:000e61e4       $unwind$cp949_wctomb       00000001801121e4     iconv.obj
 0002:000e61f4       $chain$0$cp949_wctomb      00000001801121f4     iconv.obj
 0002:000e6208       $chain$2$cp949_wctomb      0000000180112208     iconv.obj
 0002:000e621c       $chain$0$johab_mbtowc      000000018011221c     iconv.obj
 0002:000e6230       $chain$10$johab_mbtowc     0000000180112230     iconv.obj
 0002:000e6230       $chain$2$johab_mbtowc      0000000180112230     iconv.obj
 0002:000e6230       $chain$4$johab_mbtowc      0000000180112230     iconv.obj
 0002:000e6230       $chain$6$johab_mbtowc      0000000180112230     iconv.obj
 0002:000e6230       $chain$8$johab_mbtowc      0000000180112230     iconv.obj
 0002:000e6244       $chain$11$johab_mbtowc     0000000180112244     iconv.obj
 0002:000e6254       $unwind$iso2022_kr_mbtowc  0000000180112254     iconv.obj
 0002:000e626c       $unwind$iso2022_jp3_mbtowc 000000018011226c     iconv.obj
 0002:000e626c       $unwind$_free_osfhnd       000000018011226c     libucrt:osfinfo.obj
 0002:000e626c       $unwind$__std_exception_copy 000000018011226c     libvcruntime:std_exception.obj
 0002:000e6280       $unwind$iso2022_jp3_wctomb 0000000180112280     iconv.obj
 0002:000e629c       $chain$1$big5_2003_mbtowc  000000018011229c     iconv.obj
 0002:000e62b4       $chain$21$big5_2003_mbtowc 00000001801122b4     iconv.obj
 0002:000e62b4       $chain$19$big5_2003_mbtowc 00000001801122b4     iconv.obj
 0002:000e62b4       $chain$17$big5_2003_mbtowc 00000001801122b4     iconv.obj
 0002:000e62b4       $chain$15$big5_2003_mbtowc 00000001801122b4     iconv.obj
 0002:000e62b4       $chain$13$big5_2003_mbtowc 00000001801122b4     iconv.obj
 0002:000e62b4       $chain$11$big5_2003_mbtowc 00000001801122b4     iconv.obj
 0002:000e62b4       $chain$9$big5_2003_mbtowc  00000001801122b4     iconv.obj
 0002:000e62b4       $chain$7$big5_2003_mbtowc  00000001801122b4     iconv.obj
 0002:000e62b4       $chain$5$big5_2003_mbtowc  00000001801122b4     iconv.obj
 0002:000e62b4       $chain$3$big5_2003_mbtowc  00000001801122b4     iconv.obj
 0002:000e62cc       $unwind$unicode_transliterate 00000001801122cc     iconv.obj
 0002:000e62ec       $unwind$mb_to_uc_write_replacement 00000001801122ec     iconv.obj
 0002:000e62f8       $chain$4$mb_to_uc_write_replacement 00000001801122f8     iconv.obj
 0002:000e631c       $chain$5$mb_to_uc_write_replacement 000000018011231c     iconv.obj
 0002:000e632c       $chain$6$mb_to_uc_write_replacement 000000018011232c     iconv.obj
 0002:000e6350       $unwind$unicode_loop_convert 0000000180112350     iconv.obj
 0002:000e6368       $unwind$unicode_loop_reset 0000000180112368     iconv.obj
 0002:000e6374       $chain$4$unicode_loop_reset 0000000180112374     iconv.obj
 0002:000e6398       $chain$8$unicode_loop_reset 0000000180112398     iconv.obj
 0002:000e6398       $chain$6$unicode_loop_reset 0000000180112398     iconv.obj
 0002:000e63bc       $chain$7$unicode_loop_reset 00000001801123bc     iconv.obj
 0002:000e63cc       $unwind$libiconv_open      00000001801123cc     iconv.obj
 0002:000e63f4       xdata                      00000001801123f4     node:node.exe
 0002:000e6400       $xdatasym                  0000000180112400     LIBCMT:amdsecgs.obj
 0002:000e6404       $unwind$__scrt_is_nonwritable_in_current_image 0000000180112404     LIBCMT:utility.obj
 0002:000e6424       $unwind$__scrt_is_nonwritable_in_current_image$filt$0 0000000180112424     LIBCMT:utility.obj
 0002:000e642c       $unwind$?dllmain_crt_process_attach@@YAHQEAUHINSTANCE__@@QEAX@Z 000000018011242c     LIBCMT:dll_dllmain.obj
 0002:000e6468       $unwind$?fin$0@?0???$?RV<lambda_7777bce6b2f8c936911f934f8298dc43>@@AEAV<lambda_f03950bc5685219e0bcd2087efbe011e>@@V<lambda_3883c3dff614d5e0c5f61bb1ac94921c>@@@?$__crt_seh_guarded_call@H@@QEAAH$$QEAV<lambda_7777bce6b2f8c936911f934f8298dc43>@@AEAV<lambda_f03950bc5685219e0bcd2087efbe011e>@@$$QEAV<lambda_3883c3dff614d5e0c5f61bb1ac94921c>@@@Z@4HA 0000000180112468     libucrt:onexit.obj
 0002:000e6468       $unwind$?fin$0@?0???$?RV<lambda_638799b9deba96c50f710eeac98168cd>@@AEAV<lambda_22ebabd17bc4fa466a2aca6d8deb888d>@@V<lambda_a6f7d7db0129f75315ebf26d50c089f1>@@@?$__crt_seh_guarded_call@H@@QEAAH$$QEAV<lambda_638799b9deba96c50f710eeac98168cd>@@AEAV<lambda_22ebabd17bc4fa466a2aca6d8deb888d>@@$$QEAV<lambda_a6f7d7db0129f75315ebf26d50c089f1>@@@Z@4HA 0000000180112468     libucrt:onexit.obj
 0002:000e6468       $unwind$?fin$0@?0???$?RV<lambda_751a882b2c74d4b022dec766aa51a29a>@@AEAV<lambda_628dfdc04ba53c8bfc02c9951375f3f5>@@V<lambda_f6c7be5f7998530c34de24c7437d6b54>@@@?$__crt_seh_guarded_call@H@@QEAAH$$QEAV<lambda_751a882b2c74d4b022dec766aa51a29a>@@AEAV<lambda_628dfdc04ba53c8bfc02c9951375f3f5>@@$$QEAV<lambda_f6c7be5f7998530c34de24c7437d6b54>@@@Z@4HA 0000000180112468     libucrt:close.obj
 0002:000e6468       $unwind$?fin$0@?0???$?RV<lambda_84ec643ea9557e2f7dc01bb0e9624395>@@AEAV<lambda_ca71763b3c0644891230e4f79ea54fa6>@@V<lambda_439a761618c59b0600e24586724d733b>@@@?$__crt_seh_guarded_call@H@@QEAAH$$QEAV<lambda_84ec643ea9557e2f7dc01bb0e9624395>@@AEAV<lambda_ca71763b3c0644891230e4f79ea54fa6>@@$$QEAV<lambda_439a761618c59b0600e24586724d733b>@@@Z@4HA 0000000180112468     libucrt:setvbuf.obj
 0002:000e6468       $unwind$?fin$0@?0???$?RV<lambda_d80eeec6fff315bfe5c115232f3240e3>@@AEAV<lambda_6e4b09c48022b2350581041d5f6b0c4c>@@V<lambda_2358e3775559c9db80273638284d5e45>@@@?$__crt_seh_guarded_call@X@@QEAAX$$QEAV<lambda_d80eeec6fff315bfe5c115232f3240e3>@@AEAV<lambda_6e4b09c48022b2350581041d5f6b0c4c>@@$$QEAV<lambda_2358e3775559c9db80273638284d5e45>@@@Z@4HA 0000000180112468     libucrt:exit.obj
 0002:000e6468       $unwind$?filt$0@?0???R<lambda_6e4b09c48022b2350581041d5f6b0c4c>@@QEBA@XZ@4HA 0000000180112468     libucrt:exit.obj
 0002:000e6468       $unwind$?fin$0@?0???$?RV<lambda_f2e299630e499de9f9a165e60fcd3db5>@@AEAV<lambda_2ae9d31cdba2644fcbeaf08da7c24588>@@V<lambda_40d01ff24d0e7b3814fdbdcee8eab3c7>@@@?$__crt_seh_guarded_call@X@@QEAAX$$QEAV<lambda_f2e299630e499de9f9a165e60fcd3db5>@@AEAV<lambda_2ae9d31cdba2644fcbeaf08da7c24588>@@$$QEAV<lambda_40d01ff24d0e7b3814fdbdcee8eab3c7>@@@Z@4HA 0000000180112468     libucrt:per_thread_data.obj
 0002:000e6468       $unwind$?fin$0@?0???$?RV<lambda_a37b2b86f63e897a80ea819b0eb08c01>@@AEAV<lambda_38ce7e780aa69e748d6df282ebc68efe>@@V<lambda_99fb1378e971ab6e7edea83e3a7a83a2>@@@?$__crt_seh_guarded_call@H@@QEAAH$$QEAV<lambda_a37b2b86f63e897a80ea819b0eb08c01>@@AEAV<lambda_38ce7e780aa69e748d6df282ebc68efe>@@$$QEAV<lambda_99fb1378e971ab6e7edea83e3a7a83a2>@@@Z@4HA 0000000180112468     libucrt:commit.obj
 0002:000e6468       $unwind$?fin$0@?0???$?RV<lambda_aa87e3671a710a21b5dc78c0bdf72e11>@@AEAV<lambda_92619d2358a28f41a33ba319515a20b9>@@V<lambda_6992ecaafeb10aed2b74cb1fae11a551>@@@?$__crt_seh_guarded_call@X@@QEAAX$$QEAV<lambda_aa87e3671a710a21b5dc78c0bdf72e11>@@AEAV<lambda_92619d2358a28f41a33ba319515a20b9>@@$$QEAV<lambda_6992ecaafeb10aed2b74cb1fae11a551>@@@Z@4HA 0000000180112468     libucrt:per_thread_data.obj
 0002:000e6468       $unwind$_fcloseall$fin$0   0000000180112468     libucrt:closeall.obj
 0002:000e6468       $unwind$?fin$0@?0???$?RV<lambda_0ae27a3a962d80f24befdcbee591983d>@@AEAV<lambda_8d0ee55de4b1038c4002e0adecdf1839>@@V<lambda_dc504788e8f1664fe9b84e20bfb512f2>@@@?$__crt_seh_guarded_call@X@@QEAAX$$QEAV<lambda_0ae27a3a962d80f24befdcbee591983d>@@AEAV<lambda_8d0ee55de4b1038c4002e0adecdf1839>@@$$QEAV<lambda_dc504788e8f1664fe9b84e20bfb512f2>@@@Z@4HA 0000000180112468     libucrt:per_thread_data.obj
 0002:000e6468       $unwind$__acrt_update_thread_locale_data$fin$0 0000000180112468     libucrt:locale_refcounting.obj
 0002:000e6468       $unwind$raise$fin$0        0000000180112468     libucrt:signal.obj
 0002:000e6468       $unwind$?fin$0@?0???$?RV<lambda_450d765d439847d4c735a33c368b5fc0>@@AEAV<lambda_44731a7d0e6d81c3e6aa82d741081786>@@V<lambda_601a2a7da3b7a96e9554ac7215c4b07c>@@@?$__crt_seh_guarded_call@P6AXH@Z@@QEAAP6AXH@Z$$QEAV<lambda_450d765d439847d4c735a33c368b5fc0>@@AEAV<lambda_44731a7d0e6d81c3e6aa82d741081786>@@$$QEAV<lambda_601a2a7da3b7a96e9554ac7215c4b07c>@@@Z@4HA 0000000180112468     libucrt:signal.obj
 0002:000e6468       $unwind$?fin$0@?0???$?RV<lambda_410d79af7f07d98d83a3f525b3859a53>@@AEAV<lambda_3e16ef9562a7dcce91392c22ab16ea36>@@V<lambda_38119f0e861e05405d8a144b9b982f0a>@@@?$__crt_seh_guarded_call@X@@QEAAX$$QEAV<lambda_410d79af7f07d98d83a3f525b3859a53>@@AEAV<lambda_3e16ef9562a7dcce91392c22ab16ea36>@@$$QEAV<lambda_38119f0e861e05405d8a144b9b982f0a>@@@Z@4HA 0000000180112468     libucrt:wsetlocale.obj
 0002:000e6468       $unwind$?fin$0@?0???$?RV<lambda_efdfa57d1f175319df784efa44bb7b81>@@AEAV<lambda_5f0a4c1567f8adc6734073e5d1e1b35c>@@V<lambda_2e8a7d3640ea6ccb4c2413664c2db6fd>@@@?$__crt_seh_guarded_call@X@@QEAAX$$QEAV<lambda_efdfa57d1f175319df784efa44bb7b81>@@AEAV<lambda_5f0a4c1567f8adc6734073e5d1e1b35c>@@$$QEAV<lambda_2e8a7d3640ea6ccb4c2413664c2db6fd>@@@Z@4HA 0000000180112468     libucrt:mbctype.obj
 0002:000e6468       $unwind$?fin$0@?0???$?RV<lambda_0d412022a4b28cc8a401ea49574e8ae6>@@AEAV<lambda_a775ed57af18ba8e4d5dc780aa9068fe>@@V<lambda_975a71a6baa488a08f4e15f6b0339b9e>@@@?$__crt_seh_guarded_call@H@@QEAAH$$QEAV<lambda_0d412022a4b28cc8a401ea49574e8ae6>@@AEAV<lambda_a775ed57af18ba8e4d5dc780aa9068fe>@@$$QEAV<lambda_975a71a6baa488a08f4e15f6b0339b9e>@@@Z@4HA 0000000180112468     libucrt:output.obj
 0002:000e6468       $unwind$?fin$0@?0??dllmain_crt_process_attach@@YAHQEAUHINSTANCE__@@QEAX@Z@4HA 0000000180112468     LIBCMT:dll_dllmain.obj
 0002:000e6468       $unwind$?fin$0@?0???$common_lseek@_J@@YA_JH_JH@Z@4HA 0000000180112468     libucrt:lseek.obj
 0002:000e6468       $unwind$__DestructExceptionObject$filt$0 0000000180112468     libvcruntime:ehhelpers.obj
 0002:000e6468       $unwind$_write$fin$0       0000000180112468     libucrt:write.obj
 0002:000e6468       $unwind$?fin$0@?0??dllmain_crt_process_detach@@YAH_N@Z@4HA 0000000180112468     LIBCMT:dll_dllmain.obj
 0002:000e6468       $unwind$_IsNonwritableInCurrentImage$filt$0 0000000180112468     LIBCMT:pesect.obj
 0002:000e6468       $unwind$fclose$fin$0       0000000180112468     libucrt:fclose.obj
 0002:000e6468       $unwind$?fin$0@?0???$?RV<lambda_2d41944a1d46af3157314b8a01080d33>@@AEAV<lambda_8f455de75cd7d7f24b4096f044d8b9e6>@@V<lambda_aa500f224e6afead328df44964fe2772>@@@?$__crt_seh_guarded_call@X@@QEAAX$$QEAV<lambda_2d41944a1d46af3157314b8a01080d33>@@AEAV<lambda_8f455de75cd7d7f24b4096f044d8b9e6>@@$$QEAV<lambda_aa500f224e6afead328df44964fe2772>@@@Z@4HA 0000000180112468     libucrt:per_thread_data.obj
 0002:000e6468       $unwind$_query_new_handler$fin$0 0000000180112468     libucrt:new_handler.obj
 0002:000e6468       $unwind$?fin$0@?0???$?RV<lambda_c376a267cfb53b6959b3b692ec76b120>@@AEAV<lambda_9a32fed5bf61b6b509b2d3f6003082a1>@@V<lambda_572fbb9fa0ab338edf41edfd4b5fcc8d>@@@?$__crt_seh_guarded_call@H@@QEAAH$$QEAV<lambda_c376a267cfb53b6959b3b692ec76b120>@@AEAV<lambda_9a32fed5bf61b6b509b2d3f6003082a1>@@$$QEAV<lambda_572fbb9fa0ab338edf41edfd4b5fcc8d>@@@Z@4HA 0000000180112468     libucrt:fflush.obj
 0002:000e6468       $unwind$__acrt_lowio_ensure_fh_exists$fin$0 0000000180112468     libucrt:osfinfo.obj
 0002:000e6468       $unwind$?fin$0@?0???$?RV<lambda_842d9ff0dc9ef11c61343bbaebe7f885>@@AEAV<lambda_c5860995281e5c4ce005b3de8f5874ee>@@V<lambda_d90129c13df834fdcbf8d2b88dafcf2d>@@@?$__crt_seh_guarded_call@X@@QEAAX$$QEAV<lambda_842d9ff0dc9ef11c61343bbaebe7f885>@@AEAV<lambda_c5860995281e5c4ce005b3de8f5874ee>@@$$QEAV<lambda_d90129c13df834fdcbf8d2b88dafcf2d>@@@Z@4HA 0000000180112468     libucrt:fflush.obj
 0002:000e6468       $unwind$_ctrlfp$filt$0     0000000180112468     libucrt:fpctrl.obj
 0002:000e6468       $unwind$?fin$0@?0???$?RV<lambda_886d6c58226a84441f68b9f2b8217b83>@@AEAV<lambda_ab61a845afdef5b7c387490eaf3616ee>@@V<lambda_f7f22ab5edc0698d5f6905b0d3f44752>@@@?$__crt_seh_guarded_call@X@@QEAAX$$QEAV<lambda_886d6c58226a84441f68b9f2b8217b83>@@AEAV<lambda_ab61a845afdef5b7c387490eaf3616ee>@@$$QEAV<lambda_f7f22ab5edc0698d5f6905b0d3f44752>@@@Z@4HA 0000000180112468     libucrt:fflush.obj
 0002:000e6468       $unwind$?fin$0@?0??update_thread_multibyte_data_internal@@YAPEAU__crt_multibyte_data@@QEAU__acrt_ptd@@QEAPEAU1@@Z@4HA 0000000180112468     libucrt:mbctype.obj
 0002:000e6468       $unwind$__acrt_initialize_lowio$fin$0 0000000180112468     libucrt:ioinit.obj
 0002:000e6470       $unwind$?dllmain_crt_process_detach@@YAH_N@Z 0000000180112470     LIBCMT:dll_dllmain.obj
 0002:000e64a4       $unwind$?dllmain_dispatch@@YAHQEAUHINSTANCE__@@KQEAX@Z 00000001801124a4     LIBCMT:dll_dllmain.obj
 0002:000e64cc       $unwind$?filt$0@?0??dllmain_dispatch@@YAHQEAUHINSTANCE__@@KQEAX@Z@4HA 00000001801124cc     LIBCMT:dll_dllmain.obj
 0002:000e64d4       $unwind$__report_securityfailure 00000001801124d4     LIBCMT:gs_report.obj
 0002:000e64dc       $unwind$__report_gsfailure 00000001801124dc     LIBCMT:gs_report.obj
 0002:000e64e4       $unwind$capture_current_context 00000001801124e4     LIBCMT:gs_report.obj
 0002:000e64f0       $unwind$capture_previous_context 00000001801124f0     LIBCMT:gs_report.obj
 0002:000e64fc       $unwind$?__scrt_throw_std_bad_array_new_length@@YAXXZ 00000001801124fc     LIBCMT:throw_bad_alloc.obj
 0002:000e64fc       $unwind$_raise_exc         00000001801124fc     libucrt:fpexcept.obj
 0002:000e64fc       $unwind$?__scrt_throw_std_bad_alloc@@YAXXZ 00000001801124fc     LIBCMT:throw_bad_alloc.obj
 0002:000e6504       $unwind$__isa_available_init 0000000180112504     LIBCMT:cpu_disp.obj
 0002:000e6514       $unwind$__scrt_fastfail    0000000180112514     LIBCMT:utility_desktop.obj
 0002:000e6524       $unwind$__security_init_cookie 0000000180112524     LIBCMT:gs_support.obj
 0002:000e6530       $xdatasym                  0000000180112530     LIBCMT:guard_dispatch.obj
 0002:000e6534       $unwind$__C_specific_handler 0000000180112534     libvcruntime:riscchandler.obj
 0002:000e6550       $unwind$_CxxThrowException 0000000180112550     libvcruntime:throw.obj
 0002:000e6560       $xdatasym                  0000000180112560     libvcruntime:memset.obj
 0002:000e6570       $unwind$__vcrt_initialize_winapi_thunks 0000000180112570     libvcruntime:winapi_downlevel.obj
 0002:000e6570       $unwind$__acrt_initialize_winapi_thunks 0000000180112570     libucrt:winapi_thunks.obj
 0002:000e6578       $unwind$__vcrt_uninitialize_winapi_thunks 0000000180112578     libvcruntime:winapi_downlevel.obj
 0002:000e6578       $unwind$__acrt_stdio_end_temporary_buffering_nolock 0000000180112578     libucrt:_sftbuf.obj
 0002:000e6580       $xdatasym                  0000000180112580     libvcruntime:notify.obj
 0002:000e658c       $unwind$__DestructExceptionObject 000000018011258c     libvcruntime:ehhelpers.obj
 0002:000e65b0       $xdatasym                  00000001801125b0     libvcruntime:memcpy.obj
 0002:000e65c0       $xdatasym                  00000001801125c0     libvcruntime:handlers.obj
 0002:000e65d0       $unwind$fwprintf           00000001801125d0     libucrt:assert.obj
 0002:000e65dc       $unwind$swprintf           00000001801125dc     libucrt:assert.obj
 0002:000e65ec       $unwind$??$common_assert_to_stderr@_W@@YAXQEB_W0I@Z 00000001801125ec     libucrt:assert.obj
 0002:000e6608       $unwind$??$common_assert_to_message_box@_W@@YAXQEB_W0IQEAX@Z 0000000180112608     libucrt:assert.obj
 0002:000e6624       $unwind$??$common_assert_to_message_box_build_string@_W@@YAXQEA_W_KQEB_W2IQEAX@Z 0000000180112624     libucrt:assert.obj
 0002:000e6644       $unwind$qsort              0000000180112644     libucrt:qsort.obj
 0002:000e665c       $chain$4$qsort             000000018011265c     libucrt:qsort.obj
 0002:000e6680       $chain$5$qsort             0000000180112680     libucrt:qsort.obj
 0002:000e6690       $unwind$_stricmp_l         0000000180112690     libucrt:stricmp.obj
 0002:000e6690       $unwind$?x_ismbbtype_l@@YAHPEAU__crt_locale_pointers@@IHH@Z 0000000180112690     libucrt:ismbbyte.obj
 0002:000e66a0       $unwind$_query_new_handler 00000001801126a0     libucrt:new_handler.obj
 0002:000e66c0       $unwind$?common_exit@@YAXHW4_crt_exit_cleanup_mode@@W4_crt_exit_return_mode@@@Z 00000001801126c0     libucrt:exit.obj
 0002:000e66cc       $unwind$??R<lambda_6e4b09c48022b2350581041d5f6b0c4c>@@QEBA@XZ 00000001801126cc     libucrt:exit.obj
 0002:000e66ec       $unwind$??$?RV<lambda_d80eeec6fff315bfe5c115232f3240e3>@@AEAV<lambda_6e4b09c48022b2350581041d5f6b0c4c>@@V<lambda_2358e3775559c9db80273638284d5e45>@@@?$__crt_seh_guarded_call@X@@QEAAX$$QEAV<lambda_d80eeec6fff315bfe5c115232f3240e3>@@AEAV<lambda_6e4b09c48022b2350581041d5f6b0c4c>@@$$QEAV<lambda_2358e3775559c9db80273638284d5e45>@@@Z 00000001801126ec     libucrt:exit.obj
 0002:000e6710       $unwind$_configure_narrow_argv 0000000180112710     libucrt:argv_parsing.obj
 0002:000e6724       $unwind$??$parse_command_line@D@@YAXPEADPEAPEAD0PEA_K2@Z 0000000180112724     libucrt:argv_parsing.obj
 0002:000e6724       $unwind$?write_string_impl@?$output_adapter_common@_WV?$stream_output_adapter@_W@__crt_stdio_output@@@__crt_stdio_output@@IEBAXQEB_WHQEAHAEAV__crt_deferred_errno_cache@@@Z 0000000180112724     libucrt:output.obj
 0002:000e6740       $unwind$??$free_environment@_W@@YAXQEAPEA_W@Z 0000000180112740     libucrt:environment_initialization.obj
 0002:000e6740       $unwind$??$free_environment@D@@YAXQEAPEAD@Z 0000000180112740     libucrt:environment_initialization.obj
 0002:000e674c       $unwind$??$create_environment@D@@YAQEAPEADQEAD@Z 000000018011274c     libucrt:environment_initialization.obj
 0002:000e6764       $unwind$_register_onexit_function 0000000180112764     libucrt:onexit.obj
 0002:000e676c       $unwind$_execute_onexit_table 000000018011276c     libucrt:onexit.obj
 0002:000e6774       $unwind$??$?RV<lambda_638799b9deba96c50f710eeac98168cd>@@AEAV<lambda_22ebabd17bc4fa466a2aca6d8deb888d>@@V<lambda_a6f7d7db0129f75315ebf26d50c089f1>@@@?$__crt_seh_guarded_call@H@@QEAAH$$QEAV<lambda_638799b9deba96c50f710eeac98168cd>@@AEAV<lambda_22ebabd17bc4fa466a2aca6d8deb888d>@@$$QEAV<lambda_a6f7d7db0129f75315ebf26d50c089f1>@@@Z 0000000180112774     libucrt:onexit.obj
 0002:000e6798       $unwind$??$?RV<lambda_7777bce6b2f8c936911f934f8298dc43>@@AEAV<lambda_f03950bc5685219e0bcd2087efbe011e>@@V<lambda_3883c3dff614d5e0c5f61bb1ac94921c>@@@?$__crt_seh_guarded_call@H@@QEAAH$$QEAV<lambda_7777bce6b2f8c936911f934f8298dc43>@@AEAV<lambda_f03950bc5685219e0bcd2087efbe011e>@@$$QEAV<lambda_3883c3dff614d5e0c5f61bb1ac94921c>@@@Z 0000000180112798     libucrt:onexit.obj
 0002:000e67bc       $unwind$terminate          00000001801127bc     libucrt:terminate.obj
 0002:000e67dc       $unwind$__stdio_common_vfwprintf 00000001801127dc     libucrt:output.obj
 0002:000e67e4       $unwind$??$common_vsprintf@Vstandard_base@__crt_stdio_output@@_W@@YAH_KQEA_W0QEB_WQEAU__crt_locale_pointers@@QEAD@Z 00000001801127e4     libucrt:output.obj
 0002:000e6804       $unwind$?process@?$output_processor@_WV?$string_output_adapter@_W@__crt_stdio_output@@V?$standard_base@_WV?$string_output_adapter@_W@__crt_stdio_output@@@2@@__crt_stdio_output@@QEAAHXZ 0000000180112804     libucrt:output.obj
 0002:000e6804       $unwind$?process@?$output_processor@_WV?$stream_output_adapter@_W@__crt_stdio_output@@V?$standard_base@_WV?$stream_output_adapter@_W@__crt_stdio_output@@@2@@__crt_stdio_output@@QEAAHXZ 0000000180112804     libucrt:output.obj
 0002:000e6818       $unwind$?parse_int_from_format_string@?$output_processor@_WV?$stream_output_adapter@_W@__crt_stdio_output@@V?$standard_base@_WV?$stream_output_adapter@_W@__crt_stdio_output@@@2@@__crt_stdio_output@@AEAA_NQEAH@Z 0000000180112818     libucrt:output.obj
 0002:000e6818       $unwind$?parse_int_from_format_string@?$output_processor@_WV?$string_output_adapter@_W@__crt_stdio_output@@V?$standard_base@_WV?$string_output_adapter@_W@__crt_stdio_output@@@2@@__crt_stdio_output@@AEAA_NQEAH@Z 0000000180112818     libucrt:output.obj
 0002:000e682c       $unwind$?state_case_type@?$output_processor@_WV?$stream_output_adapter@_W@__crt_stdio_output@@V?$standard_base@_WV?$stream_output_adapter@_W@__crt_stdio_output@@@2@@__crt_stdio_output@@AEAA_NXZ 000000018011282c     libucrt:output.obj
 0002:000e684c       $unwind$?type_case_a@?$output_processor@_WV?$string_output_adapter@_W@__crt_stdio_output@@V?$standard_base@_WV?$string_output_adapter@_W@__crt_stdio_output@@@2@@__crt_stdio_output@@AEAA_NXZ 000000018011284c     libucrt:output.obj
 0002:000e684c       $unwind$?type_case_a@?$output_processor@_WV?$stream_output_adapter@_W@__crt_stdio_output@@V?$standard_base@_WV?$stream_output_adapter@_W@__crt_stdio_output@@@2@@__crt_stdio_output@@AEAA_NXZ 000000018011284c     libucrt:output.obj
 0002:000e685c       $unwind$?write_stored_string_tchar@?$output_processor@_WV?$stream_output_adapter@_W@__crt_stdio_output@@V?$standard_base@_WV?$stream_output_adapter@_W@__crt_stdio_output@@@2@@__crt_stdio_output@@AEAA_N_W@Z 000000018011285c     libucrt:output.obj
 0002:000e6870       $unwind$??R<lambda_a775ed57af18ba8e4d5dc780aa9068fe>@@QEBAHXZ 0000000180112870     libucrt:output.obj
 0002:000e6890       $unwind$?write_string@?$string_output_adapter@_W@__crt_stdio_output@@QEBAXQEB_WHQEAHAEAV__crt_deferred_errno_cache@@@Z 0000000180112890     libucrt:output.obj
 0002:000e68a8       $unwind$?state_case_type@?$output_processor@_WV?$string_output_adapter@_W@__crt_stdio_output@@V?$standard_base@_WV?$string_output_adapter@_W@__crt_stdio_output@@@2@@__crt_stdio_output@@AEAA_NXZ 00000001801128a8     libucrt:output.obj
 0002:000e68cc       $unwind$?write_stored_string_tchar@?$output_processor@_WV?$string_output_adapter@_W@__crt_stdio_output@@V?$standard_base@_WV?$string_output_adapter@_W@__crt_stdio_output@@@2@@__crt_stdio_output@@AEAA_N_W@Z 00000001801128cc     libucrt:output.obj
 0002:000e68e0       $unwind$??$write_multiple_characters@V?$string_output_adapter@_W@__crt_stdio_output@@D@__crt_stdio_output@@YAXAEBV?$string_output_adapter@_W@0@DHQEAH@Z 00000001801128e0     libucrt:output.obj
 0002:000e68ec       $unwind$??$write_multiple_characters@V?$stream_output_adapter@_W@__crt_stdio_output@@D@__crt_stdio_output@@YAXAEBV?$stream_output_adapter@_W@0@DHQEAH@Z 00000001801128ec     libucrt:output.obj
 0002:000e6904       $unwind$??$?RV<lambda_0d412022a4b28cc8a401ea49574e8ae6>@@AEAV<lambda_a775ed57af18ba8e4d5dc780aa9068fe>@@V<lambda_975a71a6baa488a08f4e15f6b0339b9e>@@@?$__crt_seh_guarded_call@H@@QEAAH$$QEAV<lambda_0d412022a4b28cc8a401ea49574e8ae6>@@AEAV<lambda_a775ed57af18ba8e4d5dc780aa9068fe>@@$$QEAV<lambda_975a71a6baa488a08f4e15f6b0339b9e>@@@Z 0000000180112904     libucrt:output.obj
 0002:000e6928       $unwind$??$parse_integer@KV?$c_string_character_source@_W@__crt_strtox@@@__crt_strtox@@YAKQEAU__crt_locale_pointers@@V?$c_string_character_source@_W@0@H_N@Z 0000000180112928     libucrt:atox.obj
 0002:000e6940       $xdatasym                  0000000180112940     libucrt:strncmp.obj
 0002:000e6944       $unwind$wctomb_s           0000000180112944     libucrt:wctomb.obj
 0002:000e6944       $unwind$_log10_special     0000000180112944     libucrt:log_special.obj
 0002:000e6944       $unwind$_itow_s            0000000180112944     libucrt:xtoa.obj
 0002:000e6944       $unwind$_invalid_parameter_noinfo 0000000180112944     libucrt:invalid_parameter.obj
 0002:000e6944       $unwind$fflush             0000000180112944     libucrt:fflush.obj
 0002:000e6944       $unwind$wcstol             0000000180112944     libucrt:strtox.obj
 0002:000e694c       $unwind$__acrt_call_reportfault 000000018011294c     libucrt:invalid_parameter.obj
 0002:000e696c       $unwind$__acrt_MessageBoxW 000000018011296c     libucrt:winapi_thunks.obj
 0002:000e696c       $unwind$_invalid_parameter 000000018011296c     libucrt:invalid_parameter.obj
 0002:000e6980       $unwind$__acrt_locale_free_lc_time_if_unreferenced 0000000180112980     libucrt:locale_refcounting.obj
 0002:000e6980       $unwind$_free_base         0000000180112980     libucrt:free_base.obj
 0002:000e6980       $unwind$?destroy_fls@@YAXPEAX@Z 0000000180112980     libucrt:per_thread_data.obj
 0002:000e6980       $unwind$__acrt_locale_free_numeric 0000000180112980     libucrt:initnum.obj
 0002:000e6988       $unwind$?construct_ptd_array@@YAXQEAU__acrt_ptd@@@Z 0000000180112988     libucrt:per_thread_data.obj
 0002:000e6990       $unwind$?destroy_ptd_array@@YAXQEAU__acrt_ptd@@@Z 0000000180112990     libucrt:per_thread_data.obj
 0002:000e6998       $unwind$??$?RV<lambda_0ae27a3a962d80f24befdcbee591983d>@@AEAV<lambda_8d0ee55de4b1038c4002e0adecdf1839>@@V<lambda_dc504788e8f1664fe9b84e20bfb512f2>@@@?$__crt_seh_guarded_call@X@@QEAAX$$QEAV<lambda_0ae27a3a962d80f24befdcbee591983d>@@AEAV<lambda_8d0ee55de4b1038c4002e0adecdf1839>@@$$QEAV<lambda_dc504788e8f1664fe9b84e20bfb512f2>@@@Z 0000000180112998     libucrt:per_thread_data.obj
 0002:000e69bc       $unwind$??$?RV<lambda_aa87e3671a710a21b5dc78c0bdf72e11>@@AEAV<lambda_92619d2358a28f41a33ba319515a20b9>@@V<lambda_6992ecaafeb10aed2b74cb1fae11a551>@@@?$__crt_seh_guarded_call@X@@QEAAX$$QEAV<lambda_aa87e3671a710a21b5dc78c0bdf72e11>@@AEAV<lambda_92619d2358a28f41a33ba319515a20b9>@@$$QEAV<lambda_6992ecaafeb10aed2b74cb1fae11a551>@@@Z 00000001801129bc     libucrt:per_thread_data.obj
 0002:000e69e0       $unwind$??$?RV<lambda_f2e299630e499de9f9a165e60fcd3db5>@@AEAV<lambda_2ae9d31cdba2644fcbeaf08da7c24588>@@V<lambda_40d01ff24d0e7b3814fdbdcee8eab3c7>@@@?$__crt_seh_guarded_call@X@@QEAAX$$QEAV<lambda_f2e299630e499de9f9a165e60fcd3db5>@@AEAV<lambda_2ae9d31cdba2644fcbeaf08da7c24588>@@$$QEAV<lambda_40d01ff24d0e7b3814fdbdcee8eab3c7>@@@Z 00000001801129e0     libucrt:per_thread_data.obj
 0002:000e6a04       $unwind$??$?RV<lambda_2d41944a1d46af3157314b8a01080d33>@@AEAV<lambda_8f455de75cd7d7f24b4096f044d8b9e6>@@V<lambda_aa500f224e6afead328df44964fe2772>@@@?$__crt_seh_guarded_call@X@@QEAAX$$QEAV<lambda_2d41944a1d46af3157314b8a01080d33>@@AEAV<lambda_8f455de75cd7d7f24b4096f044d8b9e6>@@$$QEAV<lambda_aa500f224e6afead328df44964fe2772>@@@Z 0000000180112a04     libucrt:per_thread_data.obj
 0002:000e6a28       $unwind$?__mbrtowc_utf8@__crt_mbstring@@YA_KPEA_WPEBD_KPEAU_Mbstatet@@@Z 0000000180112a28     libucrt:mbrtowc.obj
 0002:000e6a28       $unwind$??$common_xtox_s@K_W@@YAHKQEA_W_KI_N@Z 0000000180112a28     libucrt:xtoa.obj
 0002:000e6a30       $unwind$__acrt_GetModuleFileNameA 0000000180112a30     libucrt:getmodulefilenamea.obj
 0002:000e6a4c       $unwind$__dcrt_write_console 0000000180112a4c     libucrt:initcon.obj
 0002:000e6a4c       $unwind$??$__acrt_wcs_to_mbs_cp@U__crt_win32_buffer_no_resizing@@@@YAHQEB_WAEAV?$__crt_win32_buffer@DU__crt_win32_buffer_no_resizing@@@@I@Z 0000000180112a4c     libucrt:getmodulefilenamea.obj
 0002:000e6a60       $unwind$__acrt_initialize_stdio 0000000180112a60     libucrt:_file.obj
 0002:000e6a60       $unwind$?initialize_stdio_handles_nolock@@YAXXZ 0000000180112a60     libucrt:ioinit.obj
 0002:000e6a78       $unwind$?common_flush_all@@YAH_N@Z 0000000180112a78     libucrt:fflush.obj
 0002:000e6a80       $unwind$??$?RV<lambda_842d9ff0dc9ef11c61343bbaebe7f885>@@AEAV<lambda_c5860995281e5c4ce005b3de8f5874ee>@@V<lambda_d90129c13df834fdcbf8d2b88dafcf2d>@@@?$__crt_seh_guarded_call@X@@QEAAX$$QEAV<lambda_842d9ff0dc9ef11c61343bbaebe7f885>@@AEAV<lambda_c5860995281e5c4ce005b3de8f5874ee>@@$$QEAV<lambda_d90129c13df834fdcbf8d2b88dafcf2d>@@@Z 0000000180112a80     libucrt:fflush.obj
 0002:000e6aa4       $unwind$??$?RV<lambda_886d6c58226a84441f68b9f2b8217b83>@@AEAV<lambda_ab61a845afdef5b7c387490eaf3616ee>@@V<lambda_f7f22ab5edc0698d5f6905b0d3f44752>@@@?$__crt_seh_guarded_call@X@@QEAAX$$QEAV<lambda_886d6c58226a84441f68b9f2b8217b83>@@AEAV<lambda_ab61a845afdef5b7c387490eaf3616ee>@@$$QEAV<lambda_f7f22ab5edc0698d5f6905b0d3f44752>@@@Z 0000000180112aa4     libucrt:fflush.obj
 0002:000e6acc       $unwind$??$?RV<lambda_c376a267cfb53b6959b3b692ec76b120>@@AEAV<lambda_9a32fed5bf61b6b509b2d3f6003082a1>@@V<lambda_572fbb9fa0ab338edf41edfd4b5fcc8d>@@@?$__crt_seh_guarded_call@H@@QEAAH$$QEAV<lambda_c376a267cfb53b6959b3b692ec76b120>@@AEAV<lambda_9a32fed5bf61b6b509b2d3f6003082a1>@@$$QEAV<lambda_572fbb9fa0ab338edf41edfd4b5fcc8d>@@@Z 0000000180112acc     libucrt:fflush.obj
 0002:000e6af0       $unwind$setvbuf            0000000180112af0     libucrt:setvbuf.obj
 0002:000e6af8       $unwind$??$?RV<lambda_84ec643ea9557e2f7dc01bb0e9624395>@@AEAV<lambda_ca71763b3c0644891230e4f79ea54fa6>@@V<lambda_439a761618c59b0600e24586724d733b>@@@?$__crt_seh_guarded_call@H@@QEAAH$$QEAV<lambda_84ec643ea9557e2f7dc01bb0e9624395>@@AEAV<lambda_ca71763b3c0644891230e4f79ea54fa6>@@$$QEAV<lambda_439a761618c59b0600e24586724d733b>@@@Z 0000000180112af8     libucrt:setvbuf.obj
 0002:000e6b1c       $unwind$__acrt_get_sigabrt_handler 0000000180112b1c     libucrt:signal.obj
 0002:000e6b1c       $unwind$__acrt_uninitialize_locale 0000000180112b1c     libucrt:wsetlocale.obj
 0002:000e6b24       $unwind$raise              0000000180112b24     libucrt:signal.obj
 0002:000e6b60       $unwind$??$?RV<lambda_450d765d439847d4c735a33c368b5fc0>@@AEAV<lambda_44731a7d0e6d81c3e6aa82d741081786>@@V<lambda_601a2a7da3b7a96e9554ac7215c4b07c>@@@?$__crt_seh_guarded_call@P6AXH@Z@@QEAAP6AXH@Z$$QEAV<lambda_450d765d439847d4c735a33c368b5fc0>@@AEAV<lambda_44731a7d0e6d81c3e6aa82d741081786>@@$$QEAV<lambda_601a2a7da3b7a96e9554ac7215c4b07c>@@@Z 0000000180112b60     libucrt:signal.obj
 0002:000e6b84       $unwind$_tolower_l         0000000180112b84     libucrt:tolower_toupper.obj
 0002:000e6b94       $unwind$??$?RV<lambda_410d79af7f07d98d83a3f525b3859a53>@@AEAV<lambda_3e16ef9562a7dcce91392c22ab16ea36>@@V<lambda_38119f0e861e05405d8a144b9b982f0a>@@@?$__crt_seh_guarded_call@X@@QEAAX$$QEAV<lambda_410d79af7f07d98d83a3f525b3859a53>@@AEAV<lambda_3e16ef9562a7dcce91392c22ab16ea36>@@$$QEAV<lambda_38119f0e861e05405d8a144b9b982f0a>@@@Z 0000000180112b94     libucrt:wsetlocale.obj
 0002:000e6bbc       $unwind$??$__acrt_mbs_to_wcs_cp@U__crt_win32_buffer_internal_dynamic_resizing@@@@YAHQEBDAEAV?$__crt_win32_buffer@_WU__crt_win32_buffer_internal_dynamic_resizing@@@@I@Z 0000000180112bbc     libucrt:argv_wildcards.obj
 0002:000e6bd4       $unwind$??$__acrt_wcs_to_mbs_cp@U__crt_win32_buffer_internal_dynamic_resizing@@@@YAHQEB_WAEAV?$__crt_win32_buffer@DU__crt_win32_buffer_internal_dynamic_resizing@@@@I@Z 0000000180112bd4     libucrt:argv_wildcards.obj
 0002:000e6bd4       $unwind$?fp_format_f_internal@@YAHQEAD_KHQEAU_strflt@@_NQEAU__crt_locale_pointers@@@Z 0000000180112bd4     libucrt:cvt.obj
 0002:000e6bd4       $unwind$__dcrt_get_narrow_environment_from_os 0000000180112bd4     libucrt:get_environment_from_os.obj
 0002:000e6bec       $unwind$??$common_expand_argv_wildcards@D@@YAHQEAPEADQEAPEAPEAD@Z 0000000180112bec     libucrt:argv_wildcards.obj
 0002:000e6c04       $unwind$??$copy_and_add_argument_to_buffer@D@@YAHQEBD0_KAEAV?$argument_list@D@?A0x5f5c8891@@@Z 0000000180112c04     libucrt:argv_wildcards.obj
 0002:000e6c20       $unwind$??$expand_argument_wildcards@D@@YAHQEAD0AEAV?$argument_list@D@?A0x5f5c8891@@@Z 0000000180112c20     libucrt:argv_wildcards.obj
 0002:000e6c44       $unwind$_setmbcp_nolock    0000000180112c44     libucrt:mbctype.obj
 0002:000e6c64       $unwind$_isleadbyte_l      0000000180112c64     libucrt:_wctype.obj
 0002:000e6c64       $unwind$__dcrt_lowio_ensure_console_output_initialized 0000000180112c64     libucrt:initcon.obj
 0002:000e6c64       $unwind$?getSystemCP@@YAHH@Z 0000000180112c64     libucrt:mbctype.obj
 0002:000e6c6c       $unwind$?update_thread_multibyte_data_internal@@YAPEAU__crt_multibyte_data@@QEAU__acrt_ptd@@QEAPEAU1@@Z 0000000180112c6c     libucrt:mbctype.obj
 0002:000e6c94       $unwind$?setmbcp_internal@@YAHH_NQEAU__acrt_ptd@@QEAPEAU__crt_multibyte_data@@@Z 0000000180112c94     libucrt:mbctype.obj
 0002:000e6ca4       $unwind$?setSBUpLow@@YAXPEAU__crt_multibyte_data@@@Z 0000000180112ca4     libucrt:mbctype.obj
 0002:000e6cc0       $unwind$??$?RV<lambda_efdfa57d1f175319df784efa44bb7b81>@@AEAV<lambda_5f0a4c1567f8adc6734073e5d1e1b35c>@@V<lambda_2e8a7d3640ea6ccb4c2413664c2db6fd>@@@?$__crt_seh_guarded_call@X@@QEAAX$$QEAV<lambda_efdfa57d1f175319df784efa44bb7b81>@@AEAV<lambda_5f0a4c1567f8adc6734073e5d1e1b35c>@@$$QEAV<lambda_2e8a7d3640ea6ccb4c2413664c2db6fd>@@@Z 0000000180112cc0     libucrt:mbctype.obj
 0002:000e6ce4       $unwind$__acrt_WideCharToMultiByte 0000000180112ce4     libucrt:widechartomultibyte.obj
 0002:000e6ce4       $unwind$__GSHandlerCheckCommon 0000000180112ce4     LIBCMT:gshandler.obj
 0002:000e6cec       $unwind$_mbtowc_l          0000000180112cec     libucrt:mbtowc.obj
 0002:000e6cec       $unwind$__acrt_LCMapStringEx 0000000180112cec     libucrt:winapi_thunks.obj
 0002:000e6cec       $unwind$?fp_format_e@@YAHQEBNQEAD_K12H_NIQEAU__crt_locale_pointers@@@Z 0000000180112cec     libucrt:cvt.obj
 0002:000e6d00       $unwind$__acrt_is_interactive 0000000180112d00     libucrt:winapi_thunks.obj
 0002:000e6d14       $unwind$__acrt_initialize_lowio 0000000180112d14     libucrt:ioinit.obj
 0002:000e6d34       $unwind$?initialize_inherited_file_handles_nolock@@YAXXZ 0000000180112d34     libucrt:ioinit.obj
 0002:000e6d50       $unwind$isdigit            0000000180112d50     libucrt:_ctype.obj
 0002:000e6d50       $unwind$_mbsdec_l          0000000180112d50     libucrt:mbsdec.obj
 0002:000e6d5c       $unwind$_wctomb_s_l        0000000180112d5c     libucrt:wctomb.obj
 0002:000e6d6c       $unwind$__acrt_fp_format   0000000180112d6c     libucrt:cvt.obj
 0002:000e6d80       $unwind$?fp_format_nan_or_infinity@@YAHW4__acrt_fp_class@@_NPEAD_K1@Z 0000000180112d80     libucrt:cvt.obj
 0002:000e6d94       $unwind$?fp_format_e_internal@@YAHQEAD_KH_NIQEAU_strflt@@2QEAU__crt_locale_pointers@@@Z 0000000180112d94     libucrt:cvt.obj
 0002:000e6dac       $unwind$?fp_format_a@@YAHQEBNPEAD_KQEAD2H_NIQEAU__crt_locale_pointers@@@Z 0000000180112dac     libucrt:cvt.obj
 0002:000e6dc8       $unwind$?fp_format_g@@YAHQEBNQEAD_K12H_NIQEAU__crt_locale_pointers@@@Z 0000000180112dc8     libucrt:cvt.obj
 0002:000e6ddc       $unwind$_fputwc_nolock     0000000180112ddc     libucrt:fputwc.obj
 0002:000e6df8       $unwind$iswctype           0000000180112df8     libucrt:iswctype.obj
 0002:000e6e04       $unwind$_isctype_l         0000000180112e04     libucrt:isctype.obj
 0002:000e6e20       $unwind$__acrt_update_thread_locale_data 0000000180112e20     libucrt:locale_refcounting.obj
 0002:000e6e44       $unwind$_fcloseall         0000000180112e44     libucrt:closeall.obj
 0002:000e6e68       $unwind$_close             0000000180112e68     libucrt:close.obj
 0002:000e6e68       $unwind$_commit            0000000180112e68     libucrt:commit.obj
 0002:000e6e70       $unwind$??$?RV<lambda_a37b2b86f63e897a80ea819b0eb08c01>@@AEAV<lambda_38ce7e780aa69e748d6df282ebc68efe>@@V<lambda_99fb1378e971ab6e7edea83e3a7a83a2>@@@?$__crt_seh_guarded_call@H@@QEAAH$$QEAV<lambda_a37b2b86f63e897a80ea819b0eb08c01>@@AEAV<lambda_38ce7e780aa69e748d6df282ebc68efe>@@$$QEAV<lambda_99fb1378e971ab6e7edea83e3a7a83a2>@@@Z 0000000180112e70     libucrt:commit.obj
 0002:000e6e94       $unwind$_write             0000000180112e94     libucrt:write.obj
 0002:000e6ec4       $unwind$_write_nolock      0000000180112ec4     libucrt:write.obj
 0002:000e6edc       $unwind$?write_double_translated_ansi_nolock@@YA?AUwrite_result@?A0x17268360@@HQEBDI@Z 0000000180112edc     libucrt:write.obj
 0002:000e6f00       $unwind$?write_text_utf16le_nolock@@YA?AUwrite_result@?A0x17268360@@HQEBDI@Z 0000000180112f00     libucrt:write.obj
 0002:000e6f00       $unwind$?write_text_ansi_nolock@@YA?AUwrite_result@?A0x17268360@@HQEBDI@Z 0000000180112f00     libucrt:write.obj
 0002:000e6f20       $unwind$?write_text_utf8_nolock@@YA?AUwrite_result@?A0x17268360@@HQEBDI@Z 0000000180112f20     libucrt:write.obj
 0002:000e6f44       $unwind$__acrt_LCMapStringA 0000000180112f44     libucrt:lcmapstringa.obj
 0002:000e6f54       $unwind$?__acrt_LCMapStringA_stat@@YAHPEAU__crt_locale_pointers@@PEB_WKPEBDHPEADHHH@Z 0000000180112f54     libucrt:lcmapstringa.obj
 0002:000e6f7c       $unwind$__acrt_locale_free_monetary 0000000180112f7c     libucrt:initmon.obj
 0002:000e6f84       $unwind$__acrt_locale_free_time 0000000180112f84     libucrt:inittime.obj
 0002:000e6f94       $unwind$__acrt_GetStringTypeA 0000000180112f94     libucrt:getstringtypea.obj
 0002:000e6fbc       $unwind$fallbackMethod     0000000180112fbc     libucrt:strpbrk.obj
 0002:000e6fcc       $unwind$?GetTableIndexFromLocaleName@@YAHPEB_W@Z 0000000180112fcc     libucrt:lcidtoname_downlevel.obj
 0002:000e6fe4       $unwind$__acrt_lowio_destroy_handle_array 0000000180112fe4     libucrt:osfinfo.obj
 0002:000e6ff4       $unwind$__acrt_lowio_ensure_fh_exists 0000000180112ff4     libucrt:osfinfo.obj
 0002:000e7020       $unwind$?__mbsrtowcs_utf8@__crt_mbstring@@YA_KPEA_WPEAPEBD_KPEAU_Mbstatet@@@Z 0000000180113020     libucrt:mbrtowc.obj
 0002:000e7038       $unwind$__acrt_fltout      0000000180113038     libucrt:cfout.obj
 0002:000e7058       $unwind$?divide@__crt_strtox@@YA_KAEAUbig_integer@1@AEBU21@@Z 0000000180113058     libucrt:cfout.obj
 0002:000e7070       $chain$0$?divide@__crt_strtox@@YA_KAEAUbig_integer@1@AEBU21@@Z 0000000180113070     libucrt:cfout.obj
 0002:000e7084       $chain$1$?divide@__crt_strtox@@YA_KAEAUbig_integer@1@AEBU21@@Z 0000000180113084     libucrt:cfout.obj
 0002:000e7094       $unwind$??$write_buffer_nolock@D@@YA_NDV__crt_stdio_stream@@@Z 0000000180113094     libucrt:_flsbuf.obj
 0002:000e70a4       $unwind$??$write_buffer_nolock@_W@@YA_N_WV__crt_stdio_stream@@@Z 00000001801130a4     libucrt:_flsbuf.obj
 0002:000e70b4       $unwind$fclose             00000001801130b4     libucrt:fclose.obj
 0002:000e70d8       $unwind$??$common_lseek@_J@@YA_JH_JH@Z 00000001801130d8     libucrt:lseek.obj
 0002:000e7108       $unwind$_putwch_nolock     0000000180113108     libucrt:putwch.obj
 0002:000e7110       $unwind$?__mbrtoc32_utf8@__crt_mbstring@@YA_KPEA_UPEBD_KPEAU_Mbstatet@@@Z 0000000180113110     libucrt:mbrtoc32.obj
 0002:000e7130       $xdatasym                  0000000180113130     libucrt:log10.obj
 0002:000e713c       $unwind$??$?RV<lambda_751a882b2c74d4b022dec766aa51a29a>@@AEAV<lambda_628dfdc04ba53c8bfc02c9951375f3f5>@@V<lambda_f6c7be5f7998530c34de24c7437d6b54>@@@?$__crt_seh_guarded_call@H@@QEAAH$$QEAV<lambda_751a882b2c74d4b022dec766aa51a29a>@@AEAV<lambda_628dfdc04ba53c8bfc02c9951375f3f5>@@$$QEAV<lambda_f6c7be5f7998530c34de24c7437d6b54>@@@Z 000000018011313c     libucrt:close.obj
 0002:000e7160       $unwind$__acrt_fenv_set_control 0000000180113160     libucrt:_fenvutils.obj
 0002:000e7170       $unwind$_call_matherr      0000000180113170     libucrt:libm_error.obj
 0002:000e7178       $unwind$_handle_error      0000000180113178     libucrt:libm_error.obj
 0002:000e7198       $unwind$__acrt_initialize_fma3 0000000180113198     libucrt:fma3_available.obj
 0002:000e71a0       $unwind$_log_special_common 00000001801131a0     libucrt:log_special.obj
 0002:000e71b0       $xdatasym                  00000001801131b0     libucrt:fpsr.obj
 0002:000e71b8       $unwind$_raise_exc_ex      00000001801131b8     libucrt:fpexcept.obj
 0002:000e71cc       $unwind$_ctrlfp            00000001801131cc     libucrt:fpctrl.obj
 0002:000e71f4       $unwind$?DloadMakePermanentImageCommit@@YAXPEAX_K@Z 00000001801131f4     DelayImp:delayhlp.obj
 0002:000e7200       $unwind$?DloadProtectSection@@YAXKPEAK@Z 0000000180113200     DelayImp:delayhlp.obj
 0002:000e7210       $unwind$__delayLoadHelper2 0000000180113210     DelayImp:delayhlp.obj
 0002:000e7228       $unwind$_IsNonwritableInCurrentImage 0000000180113228     LIBCMT:pesect.obj
 0002:000e7250       $xdatasym                  0000000180113250     LIBCMT:chkstk.obj
 0002:000e7258       $xdatasym                  0000000180113258     libvcruntime:memcmp.obj
 0002:000e8070       .edata                     0000000180114070     iconv.exp
 0002:000e8098       rgpv                       0000000180114098     iconv.exp
 0002:000e809c       rgszName                   000000018011409c     iconv.exp
 0002:000e80a0       rgwOrd                     00000001801140a0     iconv.exp
 0002:000e80a2       szName                     00000001801140a2     iconv.exp
 0002:000e80ad       $N00001                    00000001801140ad     iconv.exp
 0002:000e835c       .idata$6                   000000018011435c     kernel32:KERNEL32.dll
 0003:00000030       ?__vcrt_flsindex@@3KA      0000000180115030     libvcruntime:per_thread_data.obj
 0003:00000040       ?errno_no_memory@@3HA      0000000180115040     libucrt:errno.obj
 0003:00000044       ?doserrno_no_memory@@3KA   0000000180115044     libucrt:errno.obj
 0003:00000050       ?__acrt_flsindex@@3KA      0000000180115050     libucrt:per_thread_data.obj
 0003:000002e0       _mbctypes                  00000001801152e0     libucrt:mbctype.obj
 0003:000003f0       _mbcasemaps                00000001801153f0     libucrt:mbctype.obj
 0003:000004f0       ?__rgctypeflag@@3PADA      00000001801154f0     libucrt:mbctype.obj
 0003:00000500       ?__rgcode_page_info@@3PAUcode_page_info@@A 0000000180115500     libucrt:mbctype.obj
 0003:00000a20       ?__dcrt_lowio_console_output_handle@@3PEAXEA 0000000180115a20     libucrt:initcon.obj
 0003:00000a30       ?dazSupported@?1??_ctrlfp@@9@9 0000000180115a30     libucrt:fpctrl.obj
 0003:00000a50       _module                    0000000180115a50     binding.obj
 0003:00000c78       ?is_initialized_as_dll@@3_NA 0000000180115c78     LIBCMT:utility.obj
 0003:00000c79       ?module_local_atexit_table_initialized@@3_NA 0000000180115c79     LIBCMT:utility.obj
 0003:00000c80       ?module_local_atexit_table@@3U_onexit_table_t@@A 0000000180115c80     LIBCMT:utility.obj
 0003:00000c98       ?module_local_at_quick_exit_table@@3U_onexit_table_t@@A 0000000180115c98     LIBCMT:utility.obj
 0003:00000cb0       ?__proc_attached@@3HA      0000000180115cb0     LIBCMT:dll_dllmain.obj
 0003:00000cc0       GS_ExceptionRecord         0000000180115cc0     LIBCMT:gs_report.obj
 0003:00000d60       GS_ContextRecord           0000000180115d60     LIBCMT:gs_report.obj
 0003:00001260       ?__vcrt_startup_thread_ptd@@3U__vcrt_ptd@@A 0000000180116260     libvcruntime:per_thread_data.obj
 0003:000012e0       __vcrt_lock_table          00000001801162e0     libvcruntime:locks.obj
 0003:00001308       __vcrt_locks_initialized   0000000180116308     libvcruntime:locks.obj
 0003:00001310       ?module_handles@@3PAPEAUHINSTANCE__@@A 0000000180116310     libvcruntime:winapi_downlevel.obj
 0003:00001328       ?encoded_function_pointers@@3PAPEAXA 0000000180116328     libvcruntime:winapi_downlevel.obj
 0003:000013a0       ?heap@@3V_HeapManager@@A   00000001801163a0     libvcruntime:undname.obj
 0003:000013c8       ?__acrt_new_handler@@3V?$dual_state_global@P6AH_K@Z@__crt_state_management@@A 00000001801163c8     libucrt:new_handler.obj
 0003:000013d0       ?c_termination_complete@@3JA 00000001801163d0     libucrt:exit.obj
 0003:000013d8       ?thread_local_exit_callback_func@@3P6AXPEAXK0@ZEA 00000001801163d8     libucrt:exit.obj
 0003:000013f0       ?program_name@?1???$common_configure_argv@D@@YAHW4_crt_argv_mode@@@Z@4PADA 00000001801163f0     libucrt:argv_parsing.obj
 0003:00001548       ?__acrt_invalid_parameter_handler@@3V?$dual_state_global@P6AXPEB_W00I_K@Z@__crt_state_management@@A 0000000180116548     libucrt:invalid_parameter.obj
 0003:00001550       ?__acrt_app_type@@3W4_crt_app_type@@A 0000000180116550     libucrt:report_runtime_error.obj
 0003:00001554       __acrt_error_mode          0000000180116554     libucrt:set_error_mode.obj
 0003:00001570       ?ctrlc_action@@3V?$dual_state_global@P6AXH@Z@__crt_state_management@@A 0000000180116570     libucrt:signal.obj
 0003:00001578       ?ctrlbreak_action@@3V?$dual_state_global@P6AXH@Z@__crt_state_management@@A 0000000180116578     libucrt:signal.obj
 0003:00001580       ?abort_action@@3V?$dual_state_global@P6AXH@Z@__crt_state_management@@A 0000000180116580     libucrt:signal.obj
 0003:00001588       ?term_action@@3V?$dual_state_global@P6AXH@Z@__crt_state_management@@A 0000000180116588     libucrt:signal.obj
 0003:000015a0       ?__acrt_lock_table@@3PAU_RTL_CRITICAL_SECTION@@A 00000001801165a0     libucrt:locks.obj
 0003:000017d0       ?__acrt_locks_initialized@@3IA 00000001801167d0     libucrt:locks.obj
 0003:000017d4       ?state_cache@?1???$get_cached_win_policy@Udeveloper_information_policy_properties@?1??__acrt_get_developer_information_policy@@YA?AW4developer_information_policy@@XZ@@@YA?AW4developer_information_policy@@W4AppPolicyShowDeveloperDiagnostic@@@Z@4JA 00000001801167d4     libucrt:win_policies.obj
 0003:000017d8       ?state_cache@?1???$get_cached_win_policy@Uwindowing_model_policy_properties@?1??__acrt_get_windowing_model_policy@@YA?AW4windowing_model_policy@@XZ@@@YA?AW4windowing_model_policy@@W4AppPolicyWindowingModel@@@Z@4JA 00000001801167d8     libucrt:win_policies.obj
 0003:000017f8       ?fSystemSet@@3HA           00000001801167f8     libucrt:mbctype.obj
 0003:000017fc       ?initialized@?1??__acrt_initialize_multibyte@@9@4_NA 00000001801167fc     libucrt:mbctype.obj
 0003:00001830       ?module_handles@@3PAPEAUHINSTANCE__@@A 0000000180116830     libucrt:winapi_thunks.obj
 0003:000018d0       ?encoded_function_pointers@@3PAPEAXA 00000001801168d0     libucrt:winapi_thunks.obj
 0003:00001df8       ?user_matherr@@3V?$dual_state_global@P6AHPEAU_exception@@@Z@__crt_state_management@@A 0000000180116df8     libucrt:matherr.obj
 0003:00001e10       ?internal_state@?1??_mbtowc_l@@9@4U_Mbstatet@@A 0000000180116e10     libucrt:mbtowc.obj
 0003:00001e18       ?enable_percent_n@@3_KA    0000000180116e18     libucrt:printf_count_output.obj
 0003:00001e20       ?__acrt_global_new_mode@@3V?$dual_state_global@J@__crt_state_management@@A 0000000180116e20     libucrt:new_mode.obj
 0003:00001e30       ?internal_pst@?1??__mbrtoc32_utf8@__crt_mbstring@@YA_KPEA_UPEBD_KPEAU_Mbstatet@@@Z@4U3@A 0000000180116e30     libucrt:mbrtoc32.obj
 0004:00000018       $pdata$??2@YAPEAX_K@Z      0000000180117018     LIBCMT:new_scalar.obj
 0004:00000024       $pdata$atexit              0000000180117024     LIBCMT:utility.obj
 0004:00000030       $pdata$_onexit             0000000180117030     LIBCMT:utility.obj
 0004:0000003c       $pdata$__scrt_is_nonwritable_in_current_image 000000018011703c     LIBCMT:utility.obj
 0004:00000048       $pdata$__scrt_is_nonwritable_in_current_image$filt$0 0000000180117048     LIBCMT:utility.obj
 0004:00000054       $pdata$__scrt_acquire_startup_lock 0000000180117054     LIBCMT:utility.obj
 0004:00000060       $pdata$__scrt_release_startup_lock 0000000180117060     LIBCMT:utility.obj
 0004:0000006c       $pdata$__scrt_initialize_crt 000000018011706c     LIBCMT:utility.obj
 0004:00000078       $pdata$__scrt_uninitialize_crt 0000000180117078     LIBCMT:utility.obj
 0004:00000084       $pdata$__scrt_initialize_onexit_tables 0000000180117084     LIBCMT:utility.obj
 0004:00000090       $pdata$__scrt_dllmain_exception_filter 0000000180117090     LIBCMT:utility.obj
 0004:0000009c       $pdata$__scrt_dllmain_before_initialize_c 000000018011709c     LIBCMT:utility.obj
 0004:000000a8       $pdata$__scrt_dllmain_after_initialize_c 00000001801170a8     LIBCMT:utility.obj
 0004:000000b4       $pdata$__scrt_dllmain_uninitialize_c 00000001801170b4     LIBCMT:utility.obj
 0004:000000c0       $pdata$__scrt_dllmain_uninitialize_critical 00000001801170c0     LIBCMT:utility.obj
 0004:000000cc       $pdata$__scrt_dllmain_crt_thread_attach 00000001801170cc     LIBCMT:utility.obj
 0004:000000d8       $pdata$__scrt_dllmain_crt_thread_detach 00000001801170d8     LIBCMT:utility.obj
 0004:000000e4       $pdata$?dllmain_crt_process_attach@@YAHQEAUHINSTANCE__@@QEAX@Z 00000001801170e4     LIBCMT:dll_dllmain.obj
 0004:000000f0       $pdata$?fin$0@?0??dllmain_crt_process_attach@@YAHQEAUHINSTANCE__@@QEAX@Z@4HA 00000001801170f0     LIBCMT:dll_dllmain.obj
 0004:000000fc       $pdata$?dllmain_crt_process_detach@@YAH_N@Z 00000001801170fc     LIBCMT:dll_dllmain.obj
 0004:00000108       $pdata$?fin$0@?0??dllmain_crt_process_detach@@YAH_N@Z@4HA 0000000180117108     LIBCMT:dll_dllmain.obj
 0004:00000114       $pdata$?dllmain_crt_dispatch@@YAHQEAUHINSTANCE__@@KQEAX@Z 0000000180117114     LIBCMT:dll_dllmain.obj
 0004:00000120       $pdata$?dllmain_dispatch@@YAHQEAUHINSTANCE__@@KQEAX@Z 0000000180117120     LIBCMT:dll_dllmain.obj
 0004:0000012c       $pdata$?filt$0@?0??dllmain_dispatch@@YAHQEAUHINSTANCE__@@KQEAX@Z@4HA 000000018011712c     LIBCMT:dll_dllmain.obj
 0004:00000138       $pdata$_DllMainCRTStartup  0000000180117138     LIBCMT:dll_dllmain.obj
 0004:00000144       $pdata$__report_securityfailure 0000000180117144     LIBCMT:gs_report.obj
 0004:00000150       $pdata$__report_rangecheckfailure 0000000180117150     LIBCMT:gs_report.obj
 0004:0000015c       $pdata$__report_gsfailure  000000018011715c     LIBCMT:gs_report.obj
 0004:00000168       $pdata$capture_current_context 0000000180117168     LIBCMT:gs_report.obj
 0004:00000174       $pdata$capture_previous_context 0000000180117174     LIBCMT:gs_report.obj
 0004:00000180       $pdata$__raise_securityfailure 0000000180117180     LIBCMT:gs_report.obj
 0004:0000018c       $pdata$??0exception@std@@QEAA@AEBV01@@Z 000000018011718c     LIBCMT:throw_bad_alloc.obj
 0004:00000198       $pdata$??_Gexception@std@@UEAAPEAXI@Z 0000000180117198     LIBCMT:throw_bad_alloc.obj
 0004:00000198       $pdata$??_Gbad_alloc@std@@UEAAPEAXI@Z 0000000180117198     LIBCMT:throw_bad_alloc.obj
 0004:00000198       $pdata$??_Gbad_array_new_length@std@@UEAAPEAXI@Z 0000000180117198     LIBCMT:throw_bad_alloc.obj
 0004:000001a4       $pdata$??0bad_alloc@std@@QEAA@AEBV01@@Z 00000001801171a4     LIBCMT:throw_bad_alloc.obj
 0004:000001b0       $pdata$??0bad_array_new_length@std@@QEAA@AEBV01@@Z 00000001801171b0     LIBCMT:throw_bad_alloc.obj
 0004:000001bc       $pdata$?__scrt_throw_std_bad_alloc@@YAXXZ 00000001801171bc     LIBCMT:throw_bad_alloc.obj
 0004:000001c8       $pdata$?__scrt_throw_std_bad_array_new_length@@YAXXZ 00000001801171c8     LIBCMT:throw_bad_alloc.obj
 0004:000001d4       $pdata$__isa_available_init 00000001801171d4     LIBCMT:cpu_disp.obj
 0004:000001e0       $pdata$__scrt_fastfail     00000001801171e0     LIBCMT:utility_desktop.obj
 0004:000001ec       $pdata$__security_init_cookie 00000001801171ec     LIBCMT:gs_support.obj
 0004:000001f8       $pdata$__scrt_initialize_default_local_stdio_options 00000001801171f8     LIBCMT:default_local_stdio_options.obj
 0004:00000204       $pdata$_RTC_Initialize     0000000180117204     LIBCMT:initsect.obj
 0004:00000210       $pdata$_RTC_Terminate      0000000180117210     LIBCMT:initsect.obj
 0004:0000021c       $pdata$??_Gtype_info@@UEAAPEAXI@Z 000000018011721c     LIBCMT:std_type_info_static.obj
 0004:00000234       $pdata$__vcrt_initialize   0000000180117234     libvcruntime:initialization.obj
 0004:00000240       $pdata$__vcrt_uninitialize 0000000180117240     libvcruntime:initialization.obj
 0004:0000024c       $pdata$__vcrt_uninitialize_critical 000000018011724c     libvcruntime:initialization.obj
 0004:00000258       $pdata$__vcrt_thread_attach 0000000180117258     libvcruntime:initialization.obj
 0004:00000264       $pdata$__vcrt_thread_detach 0000000180117264     libvcruntime:initialization.obj
 0004:00000270       $pdata$__C_specific_handler 0000000180117270     libvcruntime:riscchandler.obj
 0004:0000027c       $pdata$__std_exception_copy 000000018011727c     libvcruntime:std_exception.obj
 0004:00000288       $pdata$__std_exception_destroy 0000000180117288     libvcruntime:std_exception.obj
 0004:00000294       $pdata$_CxxThrowException  0000000180117294     libvcruntime:throw.obj
 0004:000002b8       $pdata$__std_type_info_destroy_list 00000001801172b8     libvcruntime:std_type_info.obj
 0004:000002c4       $pdata$__vcrt_initialize_ptd 00000001801172c4     libvcruntime:per_thread_data.obj
 0004:000002d0       $pdata$__vcrt_uninitialize_ptd 00000001801172d0     libvcruntime:per_thread_data.obj
 0004:000002dc       $pdata$__vcrt_getptd_noexit 00000001801172dc     libvcruntime:per_thread_data.obj
 0004:000002e8       $pdata$__vcrt_freeptd      00000001801172e8     libvcruntime:per_thread_data.obj
 0004:000002f4       $pdata$__vcrt_freefls      00000001801172f4     libvcruntime:per_thread_data.obj
 0004:00000300       $pdata$__vcrt_initialize_locks 0000000180117300     libvcruntime:locks.obj
 0004:0000030c       $pdata$__vcrt_uninitialize_locks 000000018011730c     libvcruntime:locks.obj
 0004:00000318       $pdata$__vcrt_FlsAlloc     0000000180117318     libvcruntime:winapi_downlevel.obj
 0004:00000324       $pdata$__vcrt_FlsFree      0000000180117324     libvcruntime:winapi_downlevel.obj
 0004:00000330       $pdata$__vcrt_FlsGetValue  0000000180117330     libvcruntime:winapi_downlevel.obj
 0004:0000033c       $pdata$__vcrt_FlsSetValue  000000018011733c     libvcruntime:winapi_downlevel.obj
 0004:00000348       $pdata$__vcrt_InitializeCriticalSectionEx 0000000180117348     libvcruntime:winapi_downlevel.obj
 0004:00000354       $pdata$__vcrt_initialize_winapi_thunks 0000000180117354     libvcruntime:winapi_downlevel.obj
 0004:00000360       $pdata$__vcrt_uninitialize_winapi_thunks 0000000180117360     libvcruntime:winapi_downlevel.obj
 0004:0000036c       $pdata$?try_get_function@@YAPEAXW4function_id@?A0xa3f614c4@@QEBDQEBW4module_id@2@2@Z 000000018011736c     libvcruntime:winapi_downlevel.obj
 0004:0000039c       $pdata$__DestructExceptionObject 000000018011739c     libvcruntime:ehhelpers.obj
 0004:000003a8       $pdata$__DestructExceptionObject$filt$0 00000001801173a8     libvcruntime:ehhelpers.obj
 0004:000003e4       $pdata$_errno              00000001801173e4     libucrt:errno.obj
 0004:000003f0       $pdata$__doserrno          00000001801173f0     libucrt:errno.obj
 0004:000003fc       $pdata$__acrt_errno_map_os_error 00000001801173fc     libucrt:errno.obj
 0004:00000408       $pdata$fwprintf            0000000180117408     libucrt:assert.obj
 0004:00000414       $pdata$swprintf            0000000180117414     libucrt:assert.obj
 0004:00000420       $pdata$_wassert            0000000180117420     libucrt:assert.obj
 0004:0000042c       $pdata$??$common_assert_to_stderr@_W@@YAXQEB_W0I@Z 000000018011742c     libucrt:assert.obj
 0004:00000438       $pdata$??$common_assert_to_message_box@_W@@YAXQEB_W0IQEAX@Z 0000000180117438     libucrt:assert.obj
 0004:00000444       $pdata$??$common_assert_to_message_box_build_string@_W@@YAXQEA_W_KQEB_W2IQEAX@Z 0000000180117444     libucrt:assert.obj
 0004:00000450       $pdata$abort               0000000180117450     libucrt:abort.obj
 0004:0000045c       $pdata$qsort               000000018011745c     libucrt:qsort.obj
 0004:00000468       $pdata$4$qsort             0000000180117468     libucrt:qsort.obj
 0004:00000474       $pdata$5$qsort             0000000180117474     libucrt:qsort.obj
 0004:00000480       $pdata$_stricmp            0000000180117480     libucrt:stricmp.obj
 0004:0000048c       $pdata$_stricmp_l          000000018011748c     libucrt:stricmp.obj
 0004:00000498       $pdata$??0_LocaleUpdate@@QEAA@QEAU__crt_locale_pointers@@@Z 0000000180117498     libucrt:stricmp.obj
 0004:000004a4       $pdata$_callnewh           00000001801174a4     libucrt:new_handler.obj
 0004:000004b0       $pdata$_query_new_handler  00000001801174b0     libucrt:new_handler.obj
 0004:000004bc       $pdata$_query_new_handler$fin$0 00000001801174bc     libucrt:new_handler.obj
 0004:000004c8       $pdata$_seh_filter_exe     00000001801174c8     libucrt:exception_filter.obj
 0004:000004d4       $pdata$?try_cor_exit_process@@YAXI@Z 00000001801174d4     libucrt:exit.obj
 0004:000004e0       $pdata$?exit_or_terminate_process@@YAXI@Z 00000001801174e0     libucrt:exit.obj
 0004:000004ec       $pdata$?common_exit@@YAXHW4_crt_exit_cleanup_mode@@W4_crt_exit_return_mode@@@Z 00000001801174ec     libucrt:exit.obj
 0004:000004f8       $pdata$??R<lambda_6e4b09c48022b2350581041d5f6b0c4c>@@QEBA@XZ 00000001801174f8     libucrt:exit.obj
 0004:00000504       $pdata$?filt$0@?0???R<lambda_6e4b09c48022b2350581041d5f6b0c4c>@@QEBA@XZ@4HA 0000000180117504     libucrt:exit.obj
 0004:00000510       $pdata$??$?RV<lambda_d80eeec6fff315bfe5c115232f3240e3>@@AEAV<lambda_6e4b09c48022b2350581041d5f6b0c4c>@@V<lambda_2358e3775559c9db80273638284d5e45>@@@?$__crt_seh_guarded_call@X@@QEAAX$$QEAV<lambda_d80eeec6fff315bfe5c115232f3240e3>@@AEAV<lambda_6e4b09c48022b2350581041d5f6b0c4c>@@$$QEAV<lambda_2358e3775559c9db80273638284d5e45>@@@Z 0000000180117510     libucrt:exit.obj
 0004:0000051c       $pdata$?fin$0@?0???$?RV<lambda_d80eeec6fff315bfe5c115232f3240e3>@@AEAV<lambda_6e4b09c48022b2350581041d5f6b0c4c>@@V<lambda_2358e3775559c9db80273638284d5e45>@@@?$__crt_seh_guarded_call@X@@QEAAX$$QEAV<lambda_d80eeec6fff315bfe5c115232f3240e3>@@AEAV<lambda_6e4b09c48022b2350581041d5f6b0c4c>@@$$QEAV<lambda_2358e3775559c9db80273638284d5e45>@@@Z@4HA 000000018011751c     libucrt:exit.obj
 0004:0000051c       $pdata$?fin$0@?0???$?RV<lambda_f2e299630e499de9f9a165e60fcd3db5>@@AEAV<lambda_2ae9d31cdba2644fcbeaf08da7c24588>@@V<lambda_40d01ff24d0e7b3814fdbdcee8eab3c7>@@@?$__crt_seh_guarded_call@X@@QEAAX$$QEAV<lambda_f2e299630e499de9f9a165e60fcd3db5>@@AEAV<lambda_2ae9d31cdba2644fcbeaf08da7c24588>@@$$QEAV<lambda_40d01ff24d0e7b3814fdbdcee8eab3c7>@@@Z@4HA 000000018011751c     libucrt:per_thread_data.obj
 0004:0000051c       $pdata$?fin$0@?0???$?RV<lambda_450d765d439847d4c735a33c368b5fc0>@@AEAV<lambda_44731a7d0e6d81c3e6aa82d741081786>@@V<lambda_601a2a7da3b7a96e9554ac7215c4b07c>@@@?$__crt_seh_guarded_call@P6AXH@Z@@QEAAP6AXH@Z$$QEAV<lambda_450d765d439847d4c735a33c368b5fc0>@@AEAV<lambda_44731a7d0e6d81c3e6aa82d741081786>@@$$QEAV<lambda_601a2a7da3b7a96e9554ac7215c4b07c>@@@Z@4HA 000000018011751c     libucrt:signal.obj
 0004:0000051c       $pdata$?fin$0@?0???$?RV<lambda_638799b9deba96c50f710eeac98168cd>@@AEAV<lambda_22ebabd17bc4fa466a2aca6d8deb888d>@@V<lambda_a6f7d7db0129f75315ebf26d50c089f1>@@@?$__crt_seh_guarded_call@H@@QEAAH$$QEAV<lambda_638799b9deba96c50f710eeac98168cd>@@AEAV<lambda_22ebabd17bc4fa466a2aca6d8deb888d>@@$$QEAV<lambda_a6f7d7db0129f75315ebf26d50c089f1>@@@Z@4HA 000000018011751c     libucrt:onexit.obj
 0004:0000051c       $pdata$?fin$0@?0???$?RV<lambda_7777bce6b2f8c936911f934f8298dc43>@@AEAV<lambda_f03950bc5685219e0bcd2087efbe011e>@@V<lambda_3883c3dff614d5e0c5f61bb1ac94921c>@@@?$__crt_seh_guarded_call@H@@QEAAH$$QEAV<lambda_7777bce6b2f8c936911f934f8298dc43>@@AEAV<lambda_f03950bc5685219e0bcd2087efbe011e>@@$$QEAV<lambda_3883c3dff614d5e0c5f61bb1ac94921c>@@@Z@4HA 000000018011751c     libucrt:onexit.obj
 0004:0000051c       $pdata$?fin$0@?0???$?RV<lambda_2d41944a1d46af3157314b8a01080d33>@@AEAV<lambda_8f455de75cd7d7f24b4096f044d8b9e6>@@V<lambda_aa500f224e6afead328df44964fe2772>@@@?$__crt_seh_guarded_call@X@@QEAAX$$QEAV<lambda_2d41944a1d46af3157314b8a01080d33>@@AEAV<lambda_8f455de75cd7d7f24b4096f044d8b9e6>@@$$QEAV<lambda_aa500f224e6afead328df44964fe2772>@@@Z@4HA 000000018011751c     libucrt:per_thread_data.obj
 0004:0000051c       $pdata$?fin$0@?0???$?RV<lambda_0ae27a3a962d80f24befdcbee591983d>@@AEAV<lambda_8d0ee55de4b1038c4002e0adecdf1839>@@V<lambda_dc504788e8f1664fe9b84e20bfb512f2>@@@?$__crt_seh_guarded_call@X@@QEAAX$$QEAV<lambda_0ae27a3a962d80f24befdcbee591983d>@@AEAV<lambda_8d0ee55de4b1038c4002e0adecdf1839>@@$$QEAV<lambda_dc504788e8f1664fe9b84e20bfb512f2>@@@Z@4HA 000000018011751c     libucrt:per_thread_data.obj
 0004:0000051c       $pdata$?fin$0@?0???$?RV<lambda_efdfa57d1f175319df784efa44bb7b81>@@AEAV<lambda_5f0a4c1567f8adc6734073e5d1e1b35c>@@V<lambda_2e8a7d3640ea6ccb4c2413664c2db6fd>@@@?$__crt_seh_guarded_call@X@@QEAAX$$QEAV<lambda_efdfa57d1f175319df784efa44bb7b81>@@AEAV<lambda_5f0a4c1567f8adc6734073e5d1e1b35c>@@$$QEAV<lambda_2e8a7d3640ea6ccb4c2413664c2db6fd>@@@Z@4HA 000000018011751c     libucrt:mbctype.obj
 0004:0000051c       $pdata$?fin$0@?0???$?RV<lambda_aa87e3671a710a21b5dc78c0bdf72e11>@@AEAV<lambda_92619d2358a28f41a33ba319515a20b9>@@V<lambda_6992ecaafeb10aed2b74cb1fae11a551>@@@?$__crt_seh_guarded_call@X@@QEAAX$$QEAV<lambda_aa87e3671a710a21b5dc78c0bdf72e11>@@AEAV<lambda_92619d2358a28f41a33ba319515a20b9>@@$$QEAV<lambda_6992ecaafeb10aed2b74cb1fae11a551>@@@Z@4HA 000000018011751c     libucrt:per_thread_data.obj
 0004:00000528       $pdata$_configure_narrow_argv 0000000180117528     libucrt:argv_parsing.obj
 0004:00000534       $pdata$__acrt_allocate_buffer_for_argv 0000000180117534     libucrt:argv_parsing.obj
 0004:00000540       $pdata$??$parse_command_line@D@@YAXPEADPEAPEAD0PEA_K2@Z 0000000180117540     libucrt:argv_parsing.obj
 0004:0000054c       $pdata$__dcrt_uninitialize_environments_nolock 000000018011754c     libucrt:environment_initialization.obj
 0004:00000558       $pdata$??$common_initialize_environment_nolock@D@@YAHXZ 0000000180117558     libucrt:environment_initialization.obj
 0004:00000564       $pdata$??$uninitialize_environment_internal@D@@YAXAEAPEAPEAD@Z 0000000180117564     libucrt:environment_initialization.obj
 0004:00000570       $pdata$??$uninitialize_environment_internal@_W@@YAXAEAPEAPEA_W@Z 0000000180117570     libucrt:environment_initialization.obj
 0004:0000057c       $pdata$??$free_environment@_W@@YAXQEAPEA_W@Z 000000018011757c     libucrt:environment_initialization.obj
 0004:0000057c       $pdata$??$free_environment@D@@YAXQEAPEAD@Z 000000018011757c     libucrt:environment_initialization.obj
 0004:00000588       $pdata$??$create_environment@D@@YAQEAPEADQEAD@Z 0000000180117588     libucrt:environment_initialization.obj
 0004:00000594       $pdata$_register_onexit_function 0000000180117594     libucrt:onexit.obj
 0004:000005a0       $pdata$_execute_onexit_table 00000001801175a0     libucrt:onexit.obj
 0004:000005ac       $pdata$??R<lambda_22ebabd17bc4fa466a2aca6d8deb888d>@@QEBAHXZ 00000001801175ac     libucrt:onexit.obj
 0004:000005b8       $pdata$??R<lambda_f03950bc5685219e0bcd2087efbe011e>@@QEBAHXZ 00000001801175b8     libucrt:onexit.obj
 0004:000005c4       $pdata$??$?RV<lambda_638799b9deba96c50f710eeac98168cd>@@AEAV<lambda_22ebabd17bc4fa466a2aca6d8deb888d>@@V<lambda_a6f7d7db0129f75315ebf26d50c089f1>@@@?$__crt_seh_guarded_call@H@@QEAAH$$QEAV<lambda_638799b9deba96c50f710eeac98168cd>@@AEAV<lambda_22ebabd17bc4fa466a2aca6d8deb888d>@@$$QEAV<lambda_a6f7d7db0129f75315ebf26d50c089f1>@@@Z 00000001801175c4     libucrt:onexit.obj
 0004:000005d0       $pdata$??$?RV<lambda_7777bce6b2f8c936911f934f8298dc43>@@AEAV<lambda_f03950bc5685219e0bcd2087efbe011e>@@V<lambda_3883c3dff614d5e0c5f61bb1ac94921c>@@@?$__crt_seh_guarded_call@H@@QEAAH$$QEAV<lambda_7777bce6b2f8c936911f934f8298dc43>@@AEAV<lambda_f03950bc5685219e0bcd2087efbe011e>@@$$QEAV<lambda_3883c3dff614d5e0c5f61bb1ac94921c>@@@Z 00000001801175d0     libucrt:onexit.obj
 0004:000005dc       $pdata$__acrt_uninitialize 00000001801175dc     libucrt:initialization.obj
 0004:000005e8       $pdata$__acrt_uninitialize_critical 00000001801175e8     libucrt:initialization.obj
 0004:000005f4       $pdata$__acrt_thread_attach 00000001801175f4     libucrt:initialization.obj
 0004:00000600       $pdata$__acrt_thread_detach 0000000180117600     libucrt:initialization.obj
 0004:0000060c       $pdata$initialize_c        000000018011760c     libucrt:initialization.obj
 0004:00000618       $pdata$uninitialize_environment 0000000180117618     libucrt:initialization.obj
 0004:00000624       $pdata$initialize_pointers 0000000180117624     libucrt:initialization.obj
 0004:00000630       $pdata$uninitialize_allocated_memory 0000000180117630     libucrt:initialization.obj
 0004:0000063c       $pdata$uninitialize_allocated_io_buffers 000000018011763c     libucrt:initialization.obj
 0004:00000648       $pdata$_initterm           0000000180117648     libucrt:initterm.obj
 0004:00000654       $pdata$_initterm_e         0000000180117654     libucrt:initterm.obj
 0004:00000660       $pdata$terminate           0000000180117660     libucrt:terminate.obj
 0004:0000066c       $pdata$strcpy_s            000000018011766c     libucrt:strcpy_s.obj
 0004:00000678       $pdata$__stdio_common_vfwprintf 0000000180117678     libucrt:output.obj
 0004:00000684       $pdata$?force_decimal_point@__crt_stdio_output@@YAXPEADQEAU__crt_locale_pointers@@@Z 0000000180117684     libucrt:output.obj
 0004:00000690       $pdata$??$common_vsprintf@Vstandard_base@__crt_stdio_output@@_W@@YAH_KQEA_W0QEB_WQEAU__crt_locale_pointers@@QEAD@Z 0000000180117690     libucrt:output.obj
 0004:0000069c       $pdata$?write_string_impl@?$output_adapter_common@_WV?$stream_output_adapter@_W@__crt_stdio_output@@@__crt_stdio_output@@IEBAXQEB_WHQEAHAEAV__crt_deferred_errno_cache@@@Z 000000018011769c     libucrt:output.obj
 0004:000006a8       $pdata$?process@?$output_processor@_WV?$stream_output_adapter@_W@__crt_stdio_output@@V?$standard_base@_WV?$stream_output_adapter@_W@__crt_stdio_output@@@2@@__crt_stdio_output@@QEAAHXZ 00000001801176a8     libucrt:output.obj
 0004:000006b4       $pdata$?parse_int_from_format_string@?$output_processor@_WV?$string_output_adapter@_W@__crt_stdio_output@@V?$standard_base@_WV?$string_output_adapter@_W@__crt_stdio_output@@@2@@__crt_stdio_output@@AEAA_NQEAH@Z 00000001801176b4     libucrt:output.obj
 0004:000006b4       $pdata$?parse_int_from_format_string@?$output_processor@_WV?$stream_output_adapter@_W@__crt_stdio_output@@V?$standard_base@_WV?$stream_output_adapter@_W@__crt_stdio_output@@@2@@__crt_stdio_output@@AEAA_NQEAH@Z 00000001801176b4     libucrt:output.obj
 0004:000006c0       $pdata$?state_case_size@?$output_processor@_WV?$stream_output_adapter@_W@__crt_stdio_output@@V?$standard_base@_WV?$stream_output_adapter@_W@__crt_stdio_output@@@2@@__crt_stdio_output@@AEAA_NXZ 00000001801176c0     libucrt:output.obj
 0004:000006cc       $pdata$?state_case_type@?$output_processor@_WV?$stream_output_adapter@_W@__crt_stdio_output@@V?$standard_base@_WV?$stream_output_adapter@_W@__crt_stdio_output@@@2@@__crt_stdio_output@@AEAA_NXZ 00000001801176cc     libucrt:output.obj
 0004:000006d8       $pdata$?type_case_c_tchar@?$output_processor@_WV?$string_output_adapter@_W@__crt_stdio_output@@V?$standard_base@_WV?$string_output_adapter@_W@__crt_stdio_output@@@2@@__crt_stdio_output@@AEAA_N_W@Z 00000001801176d8     libucrt:output.obj
 0004:000006d8       $pdata$?type_case_c_tchar@?$output_processor@_WV?$stream_output_adapter@_W@__crt_stdio_output@@V?$standard_base@_WV?$stream_output_adapter@_W@__crt_stdio_output@@@2@@__crt_stdio_output@@AEAA_N_W@Z 00000001801176d8     libucrt:output.obj
 0004:000006e4       $pdata$?type_case_Z@?$output_processor@_WV?$string_output_adapter@_W@__crt_stdio_output@@V?$standard_base@_WV?$string_output_adapter@_W@__crt_stdio_output@@@2@@__crt_stdio_output@@AEAA_NXZ 00000001801176e4     libucrt:output.obj
 0004:000006e4       $pdata$?type_case_Z@?$output_processor@_WV?$stream_output_adapter@_W@__crt_stdio_output@@V?$standard_base@_WV?$stream_output_adapter@_W@__crt_stdio_output@@@2@@__crt_stdio_output@@AEAA_NXZ 00000001801176e4     libucrt:output.obj
 0004:000006f0       $pdata$?type_case_s@?$output_processor@_WV?$stream_output_adapter@_W@__crt_stdio_output@@V?$standard_base@_WV?$stream_output_adapter@_W@__crt_stdio_output@@@2@@__crt_stdio_output@@AEAA_NXZ 00000001801176f0     libucrt:output.obj
 0004:000006f0       $pdata$?type_case_s@?$output_processor@_WV?$string_output_adapter@_W@__crt_stdio_output@@V?$standard_base@_WV?$string_output_adapter@_W@__crt_stdio_output@@@2@@__crt_stdio_output@@AEAA_NXZ 00000001801176f0     libucrt:output.obj
 0004:000006fc       $pdata$?type_case_a@?$output_processor@_WV?$stream_output_adapter@_W@__crt_stdio_output@@V?$standard_base@_WV?$stream_output_adapter@_W@__crt_stdio_output@@@2@@__crt_stdio_output@@AEAA_NXZ 00000001801176fc     libucrt:output.obj
 0004:000006fc       $pdata$?type_case_a@?$output_processor@_WV?$string_output_adapter@_W@__crt_stdio_output@@V?$standard_base@_WV?$string_output_adapter@_W@__crt_stdio_output@@@2@@__crt_stdio_output@@AEAA_NXZ 00000001801176fc     libucrt:output.obj
 0004:00000708       $pdata$?type_case_integer@?$output_processor@_WV?$string_output_adapter@_W@__crt_stdio_output@@V?$standard_base@_WV?$string_output_adapter@_W@__crt_stdio_output@@@2@@__crt_stdio_output@@AEAA_NI_N@Z 0000000180117708     libucrt:output.obj
 0004:00000708       $pdata$?type_case_integer@?$output_processor@_WV?$stream_output_adapter@_W@__crt_stdio_output@@V?$standard_base@_WV?$stream_output_adapter@_W@__crt_stdio_output@@@2@@__crt_stdio_output@@AEAA_NI_N@Z 0000000180117708     libucrt:output.obj
 0004:00000714       $pdata$?type_case_n@?$output_processor@_WV?$stream_output_adapter@_W@__crt_stdio_output@@V?$standard_base@_WV?$stream_output_adapter@_W@__crt_stdio_output@@@2@@__crt_stdio_output@@AEAA_NXZ 0000000180117714     libucrt:output.obj
 0004:00000714       $pdata$?type_case_n@?$output_processor@_WV?$string_output_adapter@_W@__crt_stdio_output@@V?$standard_base@_WV?$string_output_adapter@_W@__crt_stdio_output@@@2@@__crt_stdio_output@@AEAA_NXZ 0000000180117714     libucrt:output.obj
 0004:00000720       $pdata$?write_stored_string_tchar@?$output_processor@_WV?$stream_output_adapter@_W@__crt_stdio_output@@V?$standard_base@_WV?$stream_output_adapter@_W@__crt_stdio_output@@@2@@__crt_stdio_output@@AEAA_N_W@Z 0000000180117720     libucrt:output.obj
 0004:0000072c       $pdata$??R<lambda_a775ed57af18ba8e4d5dc780aa9068fe>@@QEBAHXZ 000000018011772c     libucrt:output.obj
 0004:00000738       $pdata$?write_string@?$string_output_adapter@_W@__crt_stdio_output@@QEBAXQEB_WHQEAHAEAV__crt_deferred_errno_cache@@@Z 0000000180117738     libucrt:output.obj
 0004:00000744       $pdata$?process@?$output_processor@_WV?$string_output_adapter@_W@__crt_stdio_output@@V?$standard_base@_WV?$string_output_adapter@_W@__crt_stdio_output@@@2@@__crt_stdio_output@@QEAAHXZ 0000000180117744     libucrt:output.obj
 0004:00000750       $pdata$?state_case_size@?$output_processor@_WV?$string_output_adapter@_W@__crt_stdio_output@@V?$standard_base@_WV?$string_output_adapter@_W@__crt_stdio_output@@@2@@__crt_stdio_output@@AEAA_NXZ 0000000180117750     libucrt:output.obj
 0004:0000075c       $pdata$?state_case_type@?$output_processor@_WV?$string_output_adapter@_W@__crt_stdio_output@@V?$standard_base@_WV?$string_output_adapter@_W@__crt_stdio_output@@@2@@__crt_stdio_output@@AEAA_NXZ 000000018011775c     libucrt:output.obj
 0004:00000768       $pdata$?write_stored_string_tchar@?$output_processor@_WV?$string_output_adapter@_W@__crt_stdio_output@@V?$standard_base@_WV?$string_output_adapter@_W@__crt_stdio_output@@@2@@__crt_stdio_output@@AEAA_N_W@Z 0000000180117768     libucrt:output.obj
 0004:00000774       $pdata$??$write_multiple_characters@V?$string_output_adapter@_W@__crt_stdio_output@@D@__crt_stdio_output@@YAXAEBV?$string_output_adapter@_W@0@DHQEAH@Z 0000000180117774     libucrt:output.obj
 0004:00000780       $pdata$??$write_multiple_characters@V?$stream_output_adapter@_W@__crt_stdio_output@@D@__crt_stdio_output@@YAXAEBV?$stream_output_adapter@_W@0@DHQEAH@Z 0000000180117780     libucrt:output.obj
 0004:0000078c       $pdata$??$ensure_buffer_is_big_enough@D@formatting_buffer@__crt_stdio_output@@QEAA_N_K@Z 000000018011778c     libucrt:output.obj
 0004:00000798       $pdata$??$ensure_buffer_is_big_enough@_W@formatting_buffer@__crt_stdio_output@@QEAA_N_K@Z 0000000180117798     libucrt:output.obj
 0004:000007a4       $pdata$??$type_case_integer_parse_into_buffer@_K@?$output_processor@_WV?$string_output_adapter@_W@__crt_stdio_output@@V?$standard_base@_WV?$string_output_adapter@_W@__crt_stdio_output@@@2@@__crt_stdio_output@@AEAAX_KI_N@Z 00000001801177a4     libucrt:output.obj
 0004:000007a4       $pdata$??$type_case_integer_parse_into_buffer@_K@?$output_processor@_WV?$stream_output_adapter@_W@__crt_stdio_output@@V?$standard_base@_WV?$stream_output_adapter@_W@__crt_stdio_output@@@2@@__crt_stdio_output@@AEAAX_KI_N@Z 00000001801177a4     libucrt:output.obj
 0004:000007b0       $pdata$??$type_case_integer_parse_into_buffer@I@?$output_processor@_WV?$stream_output_adapter@_W@__crt_stdio_output@@V?$standard_base@_WV?$stream_output_adapter@_W@__crt_stdio_output@@@2@@__crt_stdio_output@@AEAAXII_N@Z 00000001801177b0     libucrt:output.obj
 0004:000007b0       $pdata$??$type_case_integer_parse_into_buffer@I@?$output_processor@_WV?$string_output_adapter@_W@__crt_stdio_output@@V?$standard_base@_WV?$string_output_adapter@_W@__crt_stdio_output@@@2@@__crt_stdio_output@@AEAAXII_N@Z 00000001801177b0     libucrt:output.obj
 0004:000007bc       $pdata$??$?RV<lambda_0d412022a4b28cc8a401ea49574e8ae6>@@AEAV<lambda_a775ed57af18ba8e4d5dc780aa9068fe>@@V<lambda_975a71a6baa488a08f4e15f6b0339b9e>@@@?$__crt_seh_guarded_call@H@@QEAAH$$QEAV<lambda_0d412022a4b28cc8a401ea49574e8ae6>@@AEAV<lambda_a775ed57af18ba8e4d5dc780aa9068fe>@@$$QEAV<lambda_975a71a6baa488a08f4e15f6b0339b9e>@@@Z 00000001801177bc     libucrt:output.obj
 0004:000007c8       $pdata$?fin$0@?0???$?RV<lambda_842d9ff0dc9ef11c61343bbaebe7f885>@@AEAV<lambda_c5860995281e5c4ce005b3de8f5874ee>@@V<lambda_d90129c13df834fdcbf8d2b88dafcf2d>@@@?$__crt_seh_guarded_call@X@@QEAAX$$QEAV<lambda_842d9ff0dc9ef11c61343bbaebe7f885>@@AEAV<lambda_c5860995281e5c4ce005b3de8f5874ee>@@$$QEAV<lambda_d90129c13df834fdcbf8d2b88dafcf2d>@@@Z@4HA 00000001801177c8     libucrt:fflush.obj
 0004:000007c8       $pdata$?fin$0@?0???$?RV<lambda_84ec643ea9557e2f7dc01bb0e9624395>@@AEAV<lambda_ca71763b3c0644891230e4f79ea54fa6>@@V<lambda_439a761618c59b0600e24586724d733b>@@@?$__crt_seh_guarded_call@H@@QEAAH$$QEAV<lambda_84ec643ea9557e2f7dc01bb0e9624395>@@AEAV<lambda_ca71763b3c0644891230e4f79ea54fa6>@@$$QEAV<lambda_439a761618c59b0600e24586724d733b>@@@Z@4HA 00000001801177c8     libucrt:setvbuf.obj
 0004:000007c8       $pdata$?fin$0@?0???$?RV<lambda_c376a267cfb53b6959b3b692ec76b120>@@AEAV<lambda_9a32fed5bf61b6b509b2d3f6003082a1>@@V<lambda_572fbb9fa0ab338edf41edfd4b5fcc8d>@@@?$__crt_seh_guarded_call@H@@QEAAH$$QEAV<lambda_c376a267cfb53b6959b3b692ec76b120>@@AEAV<lambda_9a32fed5bf61b6b509b2d3f6003082a1>@@$$QEAV<lambda_572fbb9fa0ab338edf41edfd4b5fcc8d>@@@Z@4HA 00000001801177c8     libucrt:fflush.obj
 0004:000007c8       $pdata$?fin$0@?0???$?RV<lambda_0d412022a4b28cc8a401ea49574e8ae6>@@AEAV<lambda_a775ed57af18ba8e4d5dc780aa9068fe>@@V<lambda_975a71a6baa488a08f4e15f6b0339b9e>@@@?$__crt_seh_guarded_call@H@@QEAAH$$QEAV<lambda_0d412022a4b28cc8a401ea49574e8ae6>@@AEAV<lambda_a775ed57af18ba8e4d5dc780aa9068fe>@@$$QEAV<lambda_975a71a6baa488a08f4e15f6b0339b9e>@@@Z@4HA 00000001801177c8     libucrt:output.obj
 0004:000007d4       $pdata$??$parse_integer@KV?$c_string_character_source@_W@__crt_strtox@@@__crt_strtox@@YAKQEAU__crt_locale_pointers@@V?$c_string_character_source@_W@0@H_N@Z 00000001801177d4     libucrt:atox.obj
 0004:000007ec       $pdata$_invalid_parameter_noinfo 00000001801177ec     libucrt:invalid_parameter.obj
 0004:000007f8       $pdata$_invoke_watson      00000001801177f8     libucrt:invalid_parameter.obj
 0004:00000804       $pdata$__acrt_call_reportfault 0000000180117804     libucrt:invalid_parameter.obj
 0004:00000810       $pdata$_invalid_parameter  0000000180117810     libucrt:invalid_parameter.obj
 0004:0000081c       $pdata$__acrt_initialize_ptd 000000018011781c     libucrt:per_thread_data.obj
 0004:00000828       $pdata$__acrt_uninitialize_ptd 0000000180117828     libucrt:per_thread_data.obj
 0004:00000834       $pdata$__acrt_getptd       0000000180117834     libucrt:per_thread_data.obj
 0004:00000840       $pdata$__acrt_getptd_head  0000000180117840     libucrt:per_thread_data.obj
 0004:0000084c       $pdata$__acrt_getptd_noexit 000000018011784c     libucrt:per_thread_data.obj
 0004:00000858       $pdata$__acrt_freeptd      0000000180117858     libucrt:per_thread_data.obj
 0004:00000864       $pdata$?destroy_fls@@YAXPEAX@Z 0000000180117864     libucrt:per_thread_data.obj
 0004:00000870       $pdata$?replace_current_thread_locale_nolock@@YAXQEAU__acrt_ptd@@QEAU__crt_locale_data@@@Z 0000000180117870     libucrt:per_thread_data.obj
 0004:0000087c       $pdata$?construct_ptd_array@@YAXQEAU__acrt_ptd@@@Z 000000018011787c     libucrt:per_thread_data.obj
 0004:00000888       $pdata$?destroy_ptd_array@@YAXQEAU__acrt_ptd@@@Z 0000000180117888     libucrt:per_thread_data.obj
 0004:00000894       $pdata$??$?RV<lambda_0ae27a3a962d80f24befdcbee591983d>@@AEAV<lambda_8d0ee55de4b1038c4002e0adecdf1839>@@V<lambda_dc504788e8f1664fe9b84e20bfb512f2>@@@?$__crt_seh_guarded_call@X@@QEAAX$$QEAV<lambda_0ae27a3a962d80f24befdcbee591983d>@@AEAV<lambda_8d0ee55de4b1038c4002e0adecdf1839>@@$$QEAV<lambda_dc504788e8f1664fe9b84e20bfb512f2>@@@Z 0000000180117894     libucrt:per_thread_data.obj
 0004:000008a0       $pdata$??$?RV<lambda_aa87e3671a710a21b5dc78c0bdf72e11>@@AEAV<lambda_92619d2358a28f41a33ba319515a20b9>@@V<lambda_6992ecaafeb10aed2b74cb1fae11a551>@@@?$__crt_seh_guarded_call@X@@QEAAX$$QEAV<lambda_aa87e3671a710a21b5dc78c0bdf72e11>@@AEAV<lambda_92619d2358a28f41a33ba319515a20b9>@@$$QEAV<lambda_6992ecaafeb10aed2b74cb1fae11a551>@@@Z 00000001801178a0     libucrt:per_thread_data.obj
 0004:000008ac       $pdata$??$?RV<lambda_f2e299630e499de9f9a165e60fcd3db5>@@AEAV<lambda_2ae9d31cdba2644fcbeaf08da7c24588>@@V<lambda_40d01ff24d0e7b3814fdbdcee8eab3c7>@@@?$__crt_seh_guarded_call@X@@QEAAX$$QEAV<lambda_f2e299630e499de9f9a165e60fcd3db5>@@AEAV<lambda_2ae9d31cdba2644fcbeaf08da7c24588>@@$$QEAV<lambda_40d01ff24d0e7b3814fdbdcee8eab3c7>@@@Z 00000001801178ac     libucrt:per_thread_data.obj
 0004:000008b8       $pdata$??$?RV<lambda_2d41944a1d46af3157314b8a01080d33>@@AEAV<lambda_8f455de75cd7d7f24b4096f044d8b9e6>@@V<lambda_aa500f224e6afead328df44964fe2772>@@@?$__crt_seh_guarded_call@X@@QEAAX$$QEAV<lambda_2d41944a1d46af3157314b8a01080d33>@@AEAV<lambda_8f455de75cd7d7f24b4096f044d8b9e6>@@$$QEAV<lambda_aa500f224e6afead328df44964fe2772>@@@Z 00000001801178b8     libucrt:per_thread_data.obj
 0004:000008c4       $pdata$_free_base          00000001801178c4     libucrt:free_base.obj
 0004:000008d0       $pdata$_itow_s             00000001801178d0     libucrt:xtoa.obj
 0004:000008dc       $pdata$??$common_xtox_s@K_W@@YAHKQEA_W_KI_N@Z 00000001801178dc     libucrt:xtoa.obj
 0004:000008e8       $pdata$??$common_xtox@K_W@@YAHKQEA_W_KI_N@Z 00000001801178e8     libucrt:xtoa.obj
 0004:000008f4       $pdata$_set_error_mode     00000001801178f4     libucrt:set_error_mode.obj
 0004:00000900       $pdata$wcscat_s            0000000180117900     libucrt:wcscat_s.obj
 0004:0000090c       $pdata$wcscpy_s            000000018011790c     libucrt:wcscpy_s.obj
 0004:00000918       $pdata$wcsncat_s           0000000180117918     libucrt:wcsncat_s.obj
 0004:00000924       $pdata$__acrt_GetModuleFileNameA 0000000180117924     libucrt:getmodulefilenamea.obj
 0004:00000930       $pdata$??$__acrt_wcs_to_mbs_cp@U__crt_win32_buffer_no_resizing@@@@YAHQEB_WAEAV?$__crt_win32_buffer@DU__crt_win32_buffer_no_resizing@@@@I@Z 0000000180117930     libucrt:getmodulefilenamea.obj
 0004:0000093c       $pdata$__acrt_show_wide_message_box 000000018011793c     libucrt:crtmbox.obj
 0004:00000948       $pdata$__acrt_initialize_stdio 0000000180117948     libucrt:_file.obj
 0004:00000954       $pdata$__acrt_uninitialize_stdio 0000000180117954     libucrt:_file.obj
 0004:00000960       $pdata$fflush              0000000180117960     libucrt:fflush.obj
 0004:0000096c       $pdata$_fflush_nolock      000000018011796c     libucrt:fflush.obj
 0004:00000978       $pdata$__acrt_stdio_flush_nolock 0000000180117978     libucrt:fflush.obj
 0004:00000984       $pdata$?common_flush_all@@YAH_N@Z 0000000180117984     libucrt:fflush.obj
 0004:00000990       $pdata$??$?RV<lambda_842d9ff0dc9ef11c61343bbaebe7f885>@@AEAV<lambda_c5860995281e5c4ce005b3de8f5874ee>@@V<lambda_d90129c13df834fdcbf8d2b88dafcf2d>@@@?$__crt_seh_guarded_call@X@@QEAAX$$QEAV<lambda_842d9ff0dc9ef11c61343bbaebe7f885>@@AEAV<lambda_c5860995281e5c4ce005b3de8f5874ee>@@$$QEAV<lambda_d90129c13df834fdcbf8d2b88dafcf2d>@@@Z 0000000180117990     libucrt:fflush.obj
 0004:0000099c       $pdata$??$?RV<lambda_886d6c58226a84441f68b9f2b8217b83>@@AEAV<lambda_ab61a845afdef5b7c387490eaf3616ee>@@V<lambda_f7f22ab5edc0698d5f6905b0d3f44752>@@@?$__crt_seh_guarded_call@X@@QEAAX$$QEAV<lambda_886d6c58226a84441f68b9f2b8217b83>@@AEAV<lambda_ab61a845afdef5b7c387490eaf3616ee>@@$$QEAV<lambda_f7f22ab5edc0698d5f6905b0d3f44752>@@@Z 000000018011799c     libucrt:fflush.obj
 0004:000009a8       $pdata$?fin$0@?0???$?RV<lambda_886d6c58226a84441f68b9f2b8217b83>@@AEAV<lambda_ab61a845afdef5b7c387490eaf3616ee>@@V<lambda_f7f22ab5edc0698d5f6905b0d3f44752>@@@?$__crt_seh_guarded_call@X@@QEAAX$$QEAV<lambda_886d6c58226a84441f68b9f2b8217b83>@@AEAV<lambda_ab61a845afdef5b7c387490eaf3616ee>@@$$QEAV<lambda_f7f22ab5edc0698d5f6905b0d3f44752>@@@Z@4HA 00000001801179a8     libucrt:fflush.obj
 0004:000009b4       $pdata$??$?RV<lambda_c376a267cfb53b6959b3b692ec76b120>@@AEAV<lambda_9a32fed5bf61b6b509b2d3f6003082a1>@@V<lambda_572fbb9fa0ab338edf41edfd4b5fcc8d>@@@?$__crt_seh_guarded_call@H@@QEAAH$$QEAV<lambda_c376a267cfb53b6959b3b692ec76b120>@@AEAV<lambda_9a32fed5bf61b6b509b2d3f6003082a1>@@$$QEAV<lambda_572fbb9fa0ab338edf41edfd4b5fcc8d>@@@Z 00000001801179b4     libucrt:fflush.obj
 0004:000009c0       $pdata$setvbuf             00000001801179c0     libucrt:setvbuf.obj
 0004:000009cc       $pdata$??R<lambda_ca71763b3c0644891230e4f79ea54fa6>@@QEBAHXZ 00000001801179cc     libucrt:setvbuf.obj
 0004:000009d8       $pdata$??$?RV<lambda_84ec643ea9557e2f7dc01bb0e9624395>@@AEAV<lambda_ca71763b3c0644891230e4f79ea54fa6>@@V<lambda_439a761618c59b0600e24586724d733b>@@@?$__crt_seh_guarded_call@H@@QEAAH$$QEAV<lambda_84ec643ea9557e2f7dc01bb0e9624395>@@AEAV<lambda_ca71763b3c0644891230e4f79ea54fa6>@@$$QEAV<lambda_439a761618c59b0600e24586724d733b>@@@Z 00000001801179d8     libucrt:setvbuf.obj
 0004:000009e4       $pdata$__acrt_get_sigabrt_handler 00000001801179e4     libucrt:signal.obj
 0004:000009f0       $pdata$raise               00000001801179f0     libucrt:signal.obj
 0004:000009fc       $pdata$raise$fin$0         00000001801179fc     libucrt:signal.obj
 0004:00000a08       $pdata$??$?RV<lambda_450d765d439847d4c735a33c368b5fc0>@@AEAV<lambda_44731a7d0e6d81c3e6aa82d741081786>@@V<lambda_601a2a7da3b7a96e9554ac7215c4b07c>@@@?$__crt_seh_guarded_call@P6AXH@Z@@QEAAP6AXH@Z$$QEAV<lambda_450d765d439847d4c735a33c368b5fc0>@@AEAV<lambda_44731a7d0e6d81c3e6aa82d741081786>@@$$QEAV<lambda_601a2a7da3b7a96e9554ac7215c4b07c>@@@Z 0000000180117a08     libucrt:signal.obj
 0004:00000a14       $pdata$_malloc_base        0000000180117a14     libucrt:malloc_base.obj
 0004:00000a20       $pdata$tolower             0000000180117a20     libucrt:tolower_toupper.obj
 0004:00000a2c       $pdata$_tolower_l          0000000180117a2c     libucrt:tolower_toupper.obj
 0004:00000a38       $pdata$?internal_isupper_l@@YA_NHQEAU__crt_locale_pointers@@@Z 0000000180117a38     libucrt:tolower_toupper.obj
 0004:00000a44       $pdata$__acrt_update_locale_info 0000000180117a44     libucrt:locale_update.obj
 0004:00000a50       $pdata$__acrt_update_multibyte_info 0000000180117a50     libucrt:locale_update.obj
 0004:00000a5c       $pdata$__acrt_uninitialize_locale 0000000180117a5c     libucrt:wsetlocale.obj
 0004:00000a68       $pdata$??$?RV<lambda_410d79af7f07d98d83a3f525b3859a53>@@AEAV<lambda_3e16ef9562a7dcce91392c22ab16ea36>@@V<lambda_38119f0e861e05405d8a144b9b982f0a>@@@?$__crt_seh_guarded_call@X@@QEAAX$$QEAV<lambda_410d79af7f07d98d83a3f525b3859a53>@@AEAV<lambda_3e16ef9562a7dcce91392c22ab16ea36>@@$$QEAV<lambda_38119f0e861e05405d8a144b9b982f0a>@@@Z 0000000180117a68     libucrt:wsetlocale.obj
 0004:00000a74       $pdata$?fin$0@?0???$?RV<lambda_410d79af7f07d98d83a3f525b3859a53>@@AEAV<lambda_3e16ef9562a7dcce91392c22ab16ea36>@@V<lambda_38119f0e861e05405d8a144b9b982f0a>@@@?$__crt_seh_guarded_call@X@@QEAAX$$QEAV<lambda_410d79af7f07d98d83a3f525b3859a53>@@AEAV<lambda_3e16ef9562a7dcce91392c22ab16ea36>@@$$QEAV<lambda_38119f0e861e05405d8a144b9b982f0a>@@@Z@4HA 0000000180117a74     libucrt:wsetlocale.obj
 0004:00000a80       $pdata$__acrt_initialize_locks 0000000180117a80     libucrt:locks.obj
 0004:00000a8c       $pdata$__acrt_uninitialize_locks 0000000180117a8c     libucrt:locks.obj
 0004:00000a98       $pdata$__acrt_get_process_end_policy 0000000180117a98     libucrt:win_policies.obj
 0004:00000aa4       $pdata$__acrt_get_developer_information_policy 0000000180117aa4     libucrt:win_policies.obj
 0004:00000ab0       $pdata$__acrt_get_windowing_model_policy 0000000180117ab0     libucrt:win_policies.obj
 0004:00000abc       $pdata$_calloc_base        0000000180117abc     libucrt:calloc_base.obj
 0004:00000ac8       $pdata$??$__acrt_mbs_to_wcs_cp@U__crt_win32_buffer_internal_dynamic_resizing@@@@YAHQEBDAEAV?$__crt_win32_buffer@_WU__crt_win32_buffer_internal_dynamic_resizing@@@@I@Z 0000000180117ac8     libucrt:argv_wildcards.obj
 0004:00000ad4       $pdata$??$__acrt_wcs_to_mbs_cp@U__crt_win32_buffer_internal_dynamic_resizing@@@@YAHQEB_WAEAV?$__crt_win32_buffer@DU__crt_win32_buffer_internal_dynamic_resizing@@@@I@Z 0000000180117ad4     libucrt:argv_wildcards.obj
 0004:00000ae0       $pdata$??$common_expand_argv_wildcards@D@@YAHQEAPEADQEAPEAPEAD@Z 0000000180117ae0     libucrt:argv_wildcards.obj
 0004:00000aec       $pdata$??$copy_and_add_argument_to_buffer@D@@YAHQEBD0_KAEAV?$argument_list@D@?A0x5f5c8891@@@Z 0000000180117aec     libucrt:argv_wildcards.obj
 0004:00000af8       $pdata$??$expand_argument_wildcards@D@@YAHQEAD0AEAV?$argument_list@D@?A0x5f5c8891@@@Z 0000000180117af8     libucrt:argv_wildcards.obj
 0004:00000b04       $pdata$__acrt_update_thread_multibyte_data 0000000180117b04     libucrt:mbctype.obj
 0004:00000b10       $pdata$__acrt_initialize_multibyte 0000000180117b10     libucrt:mbctype.obj
 0004:00000b1c       $pdata$_setmbcp_nolock     0000000180117b1c     libucrt:mbctype.obj
 0004:00000b28       $pdata$?getSystemCP@@YAHH@Z 0000000180117b28     libucrt:mbctype.obj
 0004:00000b34       $pdata$?setSBCS@@YAXPEAU__crt_multibyte_data@@@Z 0000000180117b34     libucrt:mbctype.obj
 0004:00000b40       $pdata$?update_thread_multibyte_data_internal@@YAPEAU__crt_multibyte_data@@QEAU__acrt_ptd@@QEAPEAU1@@Z 0000000180117b40     libucrt:mbctype.obj
 0004:00000b4c       $pdata$?fin$0@?0??update_thread_multibyte_data_internal@@YAPEAU__crt_multibyte_data@@QEAU__acrt_ptd@@QEAPEAU1@@Z@4HA 0000000180117b4c     libucrt:mbctype.obj
 0004:00000b58       $pdata$?setmbcp_internal@@YAHH_NQEAU__acrt_ptd@@QEAPEAU__crt_multibyte_data@@@Z 0000000180117b58     libucrt:mbctype.obj
 0004:00000b64       $pdata$?setSBUpLow@@YAXPEAU__crt_multibyte_data@@@Z 0000000180117b64     libucrt:mbctype.obj
 0004:00000b70       $pdata$??$?RV<lambda_efdfa57d1f175319df784efa44bb7b81>@@AEAV<lambda_5f0a4c1567f8adc6734073e5d1e1b35c>@@V<lambda_2e8a7d3640ea6ccb4c2413664c2db6fd>@@@?$__crt_seh_guarded_call@X@@QEAAX$$QEAV<lambda_efdfa57d1f175319df784efa44bb7b81>@@AEAV<lambda_5f0a4c1567f8adc6734073e5d1e1b35c>@@$$QEAV<lambda_2e8a7d3640ea6ccb4c2413664c2db6fd>@@@Z 0000000180117b70     libucrt:mbctype.obj
 0004:00000b7c       $pdata$?x_ismbbtype_l@@YAHPEAU__crt_locale_pointers@@IHH@Z 0000000180117b7c     libucrt:ismbbyte.obj
 0004:00000b88       $pdata$__acrt_initialize_command_line 0000000180117b88     libucrt:argv_data.obj
 0004:00000b94       $pdata$__acrt_WideCharToMultiByte 0000000180117b94     libucrt:widechartomultibyte.obj
 0004:00000ba0       $pdata$__dcrt_get_narrow_environment_from_os 0000000180117ba0     libucrt:get_environment_from_os.obj
 0004:00000bac       $pdata$_recalloc_base      0000000180117bac     libucrt:recalloc.obj
 0004:00000bb8       $pdata$__acrt_initialize_winapi_thunks 0000000180117bb8     libucrt:winapi_thunks.obj
 0004:00000bc4       $pdata$__acrt_uninitialize_winapi_thunks 0000000180117bc4     libucrt:winapi_thunks.obj
 0004:00000bd0       $pdata$__acrt_AreFileApisANSI 0000000180117bd0     libucrt:winapi_thunks.obj
 0004:00000bdc       $pdata$__acrt_FlsAlloc     0000000180117bdc     libucrt:winapi_thunks.obj
 0004:00000be8       $pdata$__acrt_FlsFree      0000000180117be8     libucrt:winapi_thunks.obj
 0004:00000bf4       $pdata$__acrt_FlsGetValue  0000000180117bf4     libucrt:winapi_thunks.obj
 0004:00000c00       $pdata$__acrt_FlsSetValue  0000000180117c00     libucrt:winapi_thunks.obj
 0004:00000c0c       $pdata$__acrt_InitializeCriticalSectionEx 0000000180117c0c     libucrt:winapi_thunks.obj
 0004:00000c18       $pdata$__acrt_LCMapStringEx 0000000180117c18     libucrt:winapi_thunks.obj
 0004:00000c24       $pdata$__acrt_LocaleNameToLCID 0000000180117c24     libucrt:winapi_thunks.obj
 0004:00000c30       $pdata$__acrt_MessageBoxW  0000000180117c30     libucrt:winapi_thunks.obj
 0004:00000c3c       $pdata$__acrt_AppPolicyGetProcessTerminationMethodInternal 0000000180117c3c     libucrt:winapi_thunks.obj
 0004:00000c48       $pdata$__acrt_AppPolicyGetShowDeveloperDiagnosticInternal 0000000180117c48     libucrt:winapi_thunks.obj
 0004:00000c54       $pdata$__acrt_AppPolicyGetWindowingModelInternal 0000000180117c54     libucrt:winapi_thunks.obj
 0004:00000c60       $pdata$__acrt_can_show_message_box 0000000180117c60     libucrt:winapi_thunks.obj
 0004:00000c6c       $pdata$__acrt_get_parent_window 0000000180117c6c     libucrt:winapi_thunks.obj
 0004:00000c78       $pdata$__acrt_is_interactive 0000000180117c78     libucrt:winapi_thunks.obj
 0004:00000c84       $pdata$?try_get_function@@YAPEAXW4function_id@?A0x391cf84c@@QEBDQEBW4module_id@2@2@Z 0000000180117c84     libucrt:winapi_thunks.obj
 0004:00000c90       $pdata$__acrt_initialize_heap 0000000180117c90     libucrt:heap_handle.obj
 0004:00000c9c       $pdata$__acrt_initialize_lowio 0000000180117c9c     libucrt:ioinit.obj
 0004:00000ca8       $pdata$__acrt_initialize_lowio$fin$0 0000000180117ca8     libucrt:ioinit.obj
 0004:00000ca8       $pdata$__acrt_lowio_ensure_fh_exists$fin$0 0000000180117ca8     libucrt:osfinfo.obj
 0004:00000cb4       $pdata$__acrt_uninitialize_lowio 0000000180117cb4     libucrt:ioinit.obj
 0004:00000cc0       $pdata$?initialize_inherited_file_handles_nolock@@YAXXZ 0000000180117cc0     libucrt:ioinit.obj
 0004:00000ccc       $pdata$?initialize_stdio_handles_nolock@@YAXXZ 0000000180117ccc     libucrt:ioinit.obj
 0004:00000cd8       $pdata$__acrt_execute_initializers 0000000180117cd8     libucrt:shared_initialization.obj
 0004:00000ce4       $pdata$__acrt_execute_uninitializers 0000000180117ce4     libucrt:shared_initialization.obj
 0004:00000cf0       $pdata$__acrt_stdio_begin_temporary_buffering_nolock 0000000180117cf0     libucrt:_sftbuf.obj
 0004:00000cfc       $pdata$__acrt_stdio_end_temporary_buffering_nolock 0000000180117cfc     libucrt:_sftbuf.obj
 0004:00000d08       $pdata$isdigit             0000000180117d08     libucrt:_ctype.obj
 0004:00000d14       $pdata$wcstol              0000000180117d14     libucrt:strtox.obj
 0004:00000d20       $pdata$_mbtowc_l           0000000180117d20     libucrt:mbtowc.obj
 0004:00000d2c       $pdata$wctomb_s            0000000180117d2c     libucrt:wctomb.obj
 0004:00000d38       $pdata$_wctomb_s_l         0000000180117d38     libucrt:wctomb.obj
 0004:00000d44       $pdata$__acrt_fp_format    0000000180117d44     libucrt:cvt.obj
 0004:00000d50       $pdata$?fp_format_nan_or_infinity@@YAHW4__acrt_fp_class@@_NPEAD_K1@Z 0000000180117d50     libucrt:cvt.obj
 0004:00000d5c       $pdata$?fp_format_e_internal@@YAHQEAD_KH_NIQEAU_strflt@@2QEAU__crt_locale_pointers@@@Z 0000000180117d5c     libucrt:cvt.obj
 0004:00000d68       $pdata$?fp_format_e@@YAHQEBNQEAD_K12H_NIQEAU__crt_locale_pointers@@@Z 0000000180117d68     libucrt:cvt.obj
 0004:00000d74       $pdata$?fp_format_a@@YAHQEBNPEAD_KQEAD2H_NIQEAU__crt_locale_pointers@@@Z 0000000180117d74     libucrt:cvt.obj
 0004:00000d80       $pdata$?fp_format_f_internal@@YAHQEAD_KHQEAU_strflt@@_NQEAU__crt_locale_pointers@@@Z 0000000180117d80     libucrt:cvt.obj
 0004:00000d8c       $pdata$?fp_format_g@@YAHQEBNQEAD_K12H_NIQEAU__crt_locale_pointers@@@Z 0000000180117d8c     libucrt:cvt.obj
 0004:00000d98       $pdata$_fputwc_nolock      0000000180117d98     libucrt:fputwc.obj
 0004:00000da4       $pdata$_fileno             0000000180117da4     libucrt:fileno.obj
 0004:00000db0       $pdata$__pctype_func       0000000180117db0     libucrt:ctype.obj
 0004:00000dbc       $pdata$iswctype            0000000180117dbc     libucrt:iswctype.obj
 0004:00000dc8       $pdata$_isctype_l          0000000180117dc8     libucrt:isctype.obj
 0004:00000dd4       $pdata$__acrt_release_locale_ref 0000000180117dd4     libucrt:locale_refcounting.obj
 0004:00000de0       $pdata$__acrt_free_locale  0000000180117de0     libucrt:locale_refcounting.obj
 0004:00000dec       $pdata$__acrt_locale_free_lc_time_if_unreferenced 0000000180117dec     libucrt:locale_refcounting.obj
 0004:00000df8       $pdata$__acrt_update_thread_locale_data 0000000180117df8     libucrt:locale_refcounting.obj
 0004:00000e04       $pdata$__acrt_update_thread_locale_data$fin$0 0000000180117e04     libucrt:locale_refcounting.obj
 0004:00000e10       $pdata$_updatetlocinfoEx_nolock 0000000180117e10     libucrt:locale_refcounting.obj
 0004:00000e1c       $pdata$_fcloseall          0000000180117e1c     libucrt:closeall.obj
 0004:00000e28       $pdata$_fcloseall$fin$0    0000000180117e28     libucrt:closeall.obj
 0004:00000e34       $pdata$__acrt_stdio_free_buffer_nolock 0000000180117e34     libucrt:_freebuf.obj
 0004:00000e40       $pdata$_commit             0000000180117e40     libucrt:commit.obj
 0004:00000e4c       $pdata$??$?RV<lambda_a37b2b86f63e897a80ea819b0eb08c01>@@AEAV<lambda_38ce7e780aa69e748d6df282ebc68efe>@@V<lambda_99fb1378e971ab6e7edea83e3a7a83a2>@@@?$__crt_seh_guarded_call@H@@QEAAH$$QEAV<lambda_a37b2b86f63e897a80ea819b0eb08c01>@@AEAV<lambda_38ce7e780aa69e748d6df282ebc68efe>@@$$QEAV<lambda_99fb1378e971ab6e7edea83e3a7a83a2>@@@Z 0000000180117e4c     libucrt:commit.obj
 0004:00000e58       $pdata$?fin$0@?0???$?RV<lambda_751a882b2c74d4b022dec766aa51a29a>@@AEAV<lambda_628dfdc04ba53c8bfc02c9951375f3f5>@@V<lambda_f6c7be5f7998530c34de24c7437d6b54>@@@?$__crt_seh_guarded_call@H@@QEAAH$$QEAV<lambda_751a882b2c74d4b022dec766aa51a29a>@@AEAV<lambda_628dfdc04ba53c8bfc02c9951375f3f5>@@$$QEAV<lambda_f6c7be5f7998530c34de24c7437d6b54>@@@Z@4HA 0000000180117e58     libucrt:close.obj
 0004:00000e58       $pdata$?fin$0@?0???$?RV<lambda_a37b2b86f63e897a80ea819b0eb08c01>@@AEAV<lambda_38ce7e780aa69e748d6df282ebc68efe>@@V<lambda_99fb1378e971ab6e7edea83e3a7a83a2>@@@?$__crt_seh_guarded_call@H@@QEAAH$$QEAV<lambda_a37b2b86f63e897a80ea819b0eb08c01>@@AEAV<lambda_38ce7e780aa69e748d6df282ebc68efe>@@$$QEAV<lambda_99fb1378e971ab6e7edea83e3a7a83a2>@@@Z@4HA 0000000180117e58     libucrt:commit.obj
 0004:00000e64       $pdata$_write              0000000180117e64     libucrt:write.obj
 0004:00000e70       $pdata$?fin$0@?0???$common_lseek@_J@@YA_JH_JH@Z@4HA 0000000180117e70     libucrt:lseek.obj
 0004:00000e70       $pdata$_write$fin$0        0000000180117e70     libucrt:write.obj
 0004:00000e7c       $pdata$_write_nolock       0000000180117e7c     libucrt:write.obj
 0004:00000e88       $pdata$?write_double_translated_ansi_nolock@@YA?AUwrite_result@?A0x17268360@@HQEBDI@Z 0000000180117e88     libucrt:write.obj
 0004:00000e94       $pdata$?write_text_ansi_nolock@@YA?AUwrite_result@?A0x17268360@@HQEBDI@Z 0000000180117e94     libucrt:write.obj
 0004:00000ea0       $pdata$?write_text_utf16le_nolock@@YA?AUwrite_result@?A0x17268360@@HQEBDI@Z 0000000180117ea0     libucrt:write.obj
 0004:00000eac       $pdata$?write_text_utf8_nolock@@YA?AUwrite_result@?A0x17268360@@HQEBDI@Z 0000000180117eac     libucrt:write.obj
 0004:00000eb8       $pdata$_isleadbyte_l       0000000180117eb8     libucrt:_wctype.obj
 0004:00000ec4       $pdata$__acrt_LCMapStringA 0000000180117ec4     libucrt:lcmapstringa.obj
 0004:00000ed0       $pdata$?__acrt_LCMapStringA_stat@@YAHPEAU__crt_locale_pointers@@PEB_WKPEBDHPEADHHH@Z 0000000180117ed0     libucrt:lcmapstringa.obj
 0004:00000edc       $pdata$__acrt_locale_free_monetary 0000000180117edc     libucrt:initmon.obj
 0004:00000ee8       $pdata$__acrt_locale_free_numeric 0000000180117ee8     libucrt:initnum.obj
 0004:00000ef4       $pdata$__acrt_locale_free_time 0000000180117ef4     libucrt:inittime.obj
 0004:00000f00       $pdata$?free_crt_array_internal@@YAXQEAPEBX_K@Z 0000000180117f00     libucrt:inittime.obj
 0004:00000f0c       $pdata$__acrt_GetStringTypeA 0000000180117f0c     libucrt:getstringtypea.obj
 0004:00000f18       $pdata$strncpy_s           0000000180117f18     libucrt:strncpy_s.obj
 0004:00000f24       $pdata$strpbrk             0000000180117f24     libucrt:strpbrk.obj
 0004:00000f30       $pdata$fallbackMethod      0000000180117f30     libucrt:strpbrk.obj
 0004:00000f3c       $pdata$_mbsdec_l           0000000180117f3c     libucrt:mbsdec.obj
 0004:00000f48       $pdata$?initialize_multibyte@@YAHXZ 0000000180117f48     libucrt:multibyte_initializer.obj
 0004:00000f54       $pdata$_msize_base         0000000180117f54     libucrt:msize.obj
 0004:00000f60       $pdata$_realloc_base       0000000180117f60     libucrt:realloc_base.obj
 0004:00000f6c       $pdata$__acrt_DownlevelLocaleNameToLCID 0000000180117f6c     libucrt:lcidtoname_downlevel.obj
 0004:00000f78       $pdata$?GetTableIndexFromLocaleName@@YAHPEB_W@Z 0000000180117f78     libucrt:lcidtoname_downlevel.obj
 0004:00000f84       $pdata$_get_osfhandle      0000000180117f84     libucrt:osfinfo.obj
 0004:00000f90       $pdata$_free_osfhnd        0000000180117f90     libucrt:osfinfo.obj
 0004:00000f9c       $pdata$__acrt_lowio_create_handle_array 0000000180117f9c     libucrt:osfinfo.obj
 0004:00000fa8       $pdata$__acrt_lowio_destroy_handle_array 0000000180117fa8     libucrt:osfinfo.obj
 0004:00000fb4       $pdata$__acrt_lowio_ensure_fh_exists 0000000180117fb4     libucrt:osfinfo.obj
 0004:00000fc0       $pdata$_isatty             0000000180117fc0     libucrt:isatty.obj
 0004:00000fcc       $pdata$?__mbrtowc_utf8@__crt_mbstring@@YA_KPEA_WPEBD_KPEAU_Mbstatet@@@Z 0000000180117fcc     libucrt:mbrtowc.obj
 0004:00000fd8       $pdata$?__mbsrtowcs_utf8@__crt_mbstring@@YA_KPEA_WPEAPEBD_KPEAU_Mbstatet@@@Z 0000000180117fd8     libucrt:mbrtowc.obj
 0004:00000fe4       $pdata$?__c32rtomb_utf8@__crt_mbstring@@YA_KPEAD_UPEAU_Mbstatet@@@Z 0000000180117fe4     libucrt:c32rtomb.obj
 0004:00000ff0       $pdata$__acrt_fp_strflt_to_string 0000000180117ff0     libucrt:_fptostr.obj
 0004:00000ffc       $pdata$memcpy_s            0000000180117ffc     libucrt:cfout.obj
 0004:00001008       $pdata$__acrt_fltout       0000000180118008     libucrt:cfout.obj
 0004:00001014       $pdata$?divide@__crt_strtox@@YA_KAEAUbig_integer@1@AEBU21@@Z 0000000180118014     libucrt:cfout.obj
 0004:00001020       $pdata$0$?divide@__crt_strtox@@YA_KAEAUbig_integer@1@AEBU21@@Z 0000000180118020     libucrt:cfout.obj
 0004:0000102c       $pdata$1$?divide@__crt_strtox@@YA_KAEAUbig_integer@1@AEBU21@@Z 000000018011802c     libucrt:cfout.obj
 0004:00001038       $pdata$__acrt_stdio_flush_and_write_narrow_nolock 0000000180118038     libucrt:_flsbuf.obj
 0004:00001044       $pdata$__acrt_stdio_flush_and_write_wide_nolock 0000000180118044     libucrt:_flsbuf.obj
 0004:00001050       $pdata$?stream_is_at_end_of_file_nolock@@YA_NV__crt_stdio_stream@@@Z 0000000180118050     libucrt:_flsbuf.obj
 0004:0000105c       $pdata$??$write_buffer_nolock@D@@YA_NDV__crt_stdio_stream@@@Z 000000018011805c     libucrt:_flsbuf.obj
 0004:00001068       $pdata$??$write_buffer_nolock@_W@@YA_N_WV__crt_stdio_stream@@@Z 0000000180118068     libucrt:_flsbuf.obj
 0004:00001074       $pdata$fclose              0000000180118074     libucrt:fclose.obj
 0004:00001080       $pdata$fclose$fin$0        0000000180118080     libucrt:fclose.obj
 0004:0000108c       $pdata$_fclose_nolock      000000018011808c     libucrt:fclose.obj
 0004:00001098       $pdata$??$common_lseek@_J@@YA_JH_JH@Z 0000000180118098     libucrt:lseek.obj
 0004:000010a4       $pdata$??$common_lseek_nolock@_J@@YA_JH_JH@Z 00000001801180a4     libucrt:lseek.obj
 0004:000010b0       $pdata$_putwch_nolock      00000001801180b0     libucrt:putwch.obj
 0004:000010bc       $pdata$?__mbrtoc32_utf8@__crt_mbstring@@YA_KPEA_UPEBD_KPEAU_Mbstatet@@@Z 00000001801180bc     libucrt:mbrtoc32.obj
 0004:000010c8       $pdata$fegetenv            00000001801180c8     libucrt:fegetenv.obj
 0004:000010d4       $pdata$fesetenv            00000001801180d4     libucrt:fesetenv.obj
 0004:000010e0       $pdata$feholdexcept        00000001801180e0     libucrt:feholdexcept.obj
 0004:000010f8       $pdata$__acrt_stdio_allocate_buffer_nolock 00000001801180f8     libucrt:_getbuf.obj
 0004:00001104       $pdata$_close              0000000180118104     libucrt:close.obj
 0004:00001110       $pdata$_close_nolock       0000000180118110     libucrt:close.obj
 0004:0000111c       $pdata$??$?RV<lambda_751a882b2c74d4b022dec766aa51a29a>@@AEAV<lambda_628dfdc04ba53c8bfc02c9951375f3f5>@@V<lambda_f6c7be5f7998530c34de24c7437d6b54>@@@?$__crt_seh_guarded_call@H@@QEAAH$$QEAV<lambda_751a882b2c74d4b022dec766aa51a29a>@@AEAV<lambda_628dfdc04ba53c8bfc02c9951375f3f5>@@$$QEAV<lambda_f6c7be5f7998530c34de24c7437d6b54>@@@Z 000000018011811c     libucrt:close.obj
 0004:00001128       $pdata$__dcrt_lowio_ensure_console_output_initialized 0000000180118128     libucrt:initcon.obj
 0004:00001134       $pdata$__dcrt_write_console 0000000180118134     libucrt:initcon.obj
 0004:00001140       $pdata$__dcrt_terminate_console_output 0000000180118140     libucrt:initcon.obj
 0004:0000114c       $pdata$__acrt_fenv_set_control 000000018011814c     libucrt:_fenvutils.obj
 0004:00001158       $pdata$_clearfp            0000000180118158     libucrt:ieee.obj
 0004:00001164       $pdata$_call_matherr       0000000180118164     libucrt:libm_error.obj
 0004:00001170       $pdata$_exception_enabled  0000000180118170     libucrt:libm_error.obj
 0004:0000117c       $pdata$_handle_error       000000018011817c     libucrt:libm_error.obj
 0004:00001188       $pdata$__acrt_initialize_fma3 0000000180118188     libucrt:fma3_available.obj
 0004:00001194       $pdata$_log_special_common 0000000180118194     libucrt:log_special.obj
 0004:000011a0       $pdata$_log10_special      00000001801181a0     libucrt:log_special.obj
 0004:000011b8       $pdata$_set_errno_from_matherr 00000001801181b8     libucrt:fpexcept.obj
 0004:000011c4       $pdata$_raise_exc          00000001801181c4     libucrt:fpexcept.obj
 0004:000011d0       $pdata$_raise_exc_ex       00000001801181d0     libucrt:fpexcept.obj
 0004:000011dc       $pdata$_clrfp              00000001801181dc     libucrt:fpctrl.obj
 0004:000011e8       $pdata$_ctrlfp             00000001801181e8     libucrt:fpctrl.obj
 0004:000011f4       $pdata$_ctrlfp$filt$0      00000001801181f4     libucrt:fpctrl.obj
 0004:00001200       $pdata$_statfp             0000000180118200     libucrt:fpctrl.obj
 0004:0000120c       $pdata$_set_statfp         000000018011820c     libucrt:fpctrl.obj
 0004:00001218       $pdata$?DloadGetSRWLockFunctionPointers@@YAEXZ 0000000180118218     DelayImp:delayhlp.obj
 0004:00001224       $pdata$?DloadObtainSection@@YAPEAXPEAK0@Z 0000000180118224     DelayImp:delayhlp.obj
 0004:00001230       $pdata$?DloadMakePermanentImageCommit@@YAXPEAX_K@Z 0000000180118230     DelayImp:delayhlp.obj
 0004:0000123c       $pdata$?DloadProtectSection@@YAXKPEAK@Z 000000018011823c     DelayImp:delayhlp.obj
 0004:00001248       $pdata$?DloadAcquireSectionWriteAccess@@YAXXZ 0000000180118248     DelayImp:delayhlp.obj
 0004:00001254       $pdata$?DloadReleaseSectionWriteAccess@@YAXXZ 0000000180118254     DelayImp:delayhlp.obj
 0004:00001260       $pdata$__delayLoadHelper2  0000000180118260     DelayImp:delayhlp.obj
 0004:0000126c       $pdata$_IsNonwritableInCurrentImage 000000018011826c     LIBCMT:pesect.obj
 0004:00001278       $pdata$_IsNonwritableInCurrentImage$filt$0 0000000180118278     LIBCMT:pesect.obj
 0004:00001284       $pdata$__GSHandlerCheckCommon 0000000180118284     LIBCMT:gshandler.obj
 0004:00001290       $pdata$__GSHandlerCheck    0000000180118290     LIBCMT:gshandler.obj
 0004:000012b4       $pdata$??$invokeparameter@$0A@@?$WeakCallbackInfo@UIconv@?A0xd3ef0bfb@@@Nan@@CAXAEBV?$WeakCallbackInfo@V?$WeakCallbackInfo@UIconv@?A0xd3ef0bfb@@@Nan@@@v8@@@Z 00000001801182b4     binding.obj
 0004:000012c0       $pdata$??$invokeparameter@$00@?$WeakCallbackInfo@UIconv@?A0xd3ef0bfb@@@Nan@@CAXAEBV?$WeakCallbackInfo@V?$WeakCallbackInfo@UIconv@?A0xd3ef0bfb@@@Nan@@@v8@@@Z 00000001801182c0     binding.obj
 0004:000012cc       $pdata$??$SetMethodAux@V?$Local@VObject@v8@@@v8@@@imp@Nan@@YAXV?$Local@VObject@v8@@@v8@@V?$Local@VString@v8@@@3@V?$Local@VFunctionTemplate@v8@@@3@ZZ 00000001801182cc     binding.obj
 0004:000012d8       $pdata$??$SetMethod@VObject@v8@@VLocal@2@@Nan@@YAXV?$Local@VObject@v8@@@v8@@PEBDP6AXAEBV?$FunctionCallbackInfo@VValue@v8@@@0@@Z@Z 00000001801182d8     binding.obj
 0004:000012e4       $pdata$3$??$SetMethod@VObject@v8@@VLocal@2@@Nan@@YAXV?$Local@VObject@v8@@@v8@@PEBDP6AXAEBV?$FunctionCallbackInfo@VValue@v8@@@0@@Z@Z 00000001801182e4     binding.obj
 0004:000012f0       $pdata$4$??$SetMethod@VObject@v8@@VLocal@2@@Nan@@YAXV?$Local@VObject@v8@@@v8@@PEBDP6AXAEBV?$FunctionCallbackInfo@VValue@v8@@@0@@Z@Z 00000001801182f0     binding.obj
 0004:000012fc       $pdata$5$??$SetMethod@VObject@v8@@VLocal@2@@Nan@@YAXV?$Local@VObject@v8@@@v8@@PEBDP6AXAEBV?$FunctionCallbackInfo@VValue@v8@@@0@@Z@Z 00000001801182fc     binding.obj
 0004:00001308       $pdata$6$??$SetMethod@VObject@v8@@VLocal@2@@Nan@@YAXV?$Local@VObject@v8@@@v8@@PEBDP6AXAEBV?$FunctionCallbackInfo@VValue@v8@@@0@@Z@Z 0000000180118308     binding.obj
 0004:00001314       $pdata$?Convert@Iconv@?A0xd3ef0bfb@@SAXAEBV?$FunctionCallbackInfo@VValue@v8@@@Nan@@@Z 0000000180118314     binding.obj
 0004:00001320       $pdata$?Make@Iconv@?A0xd3ef0bfb@@SAXAEBV?$FunctionCallbackInfo@VValue@v8@@@Nan@@@Z 0000000180118320     binding.obj
 0004:0000132c       $pdata$1$?Make@Iconv@?A0xd3ef0bfb@@SAXAEBV?$FunctionCallbackInfo@VValue@v8@@@Nan@@@Z 000000018011832c     binding.obj
 0004:00001338       $pdata$2$?Make@Iconv@?A0xd3ef0bfb@@SAXAEBV?$FunctionCallbackInfo@VValue@v8@@@Nan@@@Z 0000000180118338     binding.obj
 0004:00001344       $pdata$?Initialize@Iconv@?A0xd3ef0bfb@@SAXV?$Local@VObject@v8@@@v8@@@Z 0000000180118344     binding.obj
 0004:00001350       $pdata$?WeakCallback@Iconv@?A0xd3ef0bfb@@SAXAEBV?$WeakCallbackInfo@UIconv@?A0xd3ef0bfb@@@Nan@@@Z 0000000180118350     binding.obj
 0004:0000135c       $pdata$??0Utf8String@Nan@@QEAA@V?$Local@VValue@v8@@@v8@@@Z 000000018011835c     binding.obj
 0004:00001368       $pdata$1$??0Utf8String@Nan@@QEAA@V?$Local@VValue@v8@@@v8@@@Z 0000000180118368     binding.obj
 0004:00001374       $pdata$2$??0Utf8String@Nan@@QEAA@V?$Local@VValue@v8@@@v8@@@Z 0000000180118374     binding.obj
 0004:00001380       $pdata$?FunctionCallbackWrapper@imp@Nan@@YAXAEBV?$FunctionCallbackInfo@VValue@v8@@@v8@@@Z 0000000180118380     binding.obj
 0004:0000138c       $pdata$aliases_lookup      000000018011838c     iconv.obj
 0004:00001398       $pdata$unicode_loop_reset  0000000180118398     iconv.obj
 0004:000013a4       $pdata$4$unicode_loop_reset 00000001801183a4     iconv.obj
 0004:000013b0       $pdata$6$unicode_loop_reset 00000001801183b0     iconv.obj
 0004:000013bc       $pdata$7$unicode_loop_reset 00000001801183bc     iconv.obj
 0004:000013c8       $pdata$8$unicode_loop_reset 00000001801183c8     iconv.obj
 0004:000013d4       $pdata$unicode_loop_convert 00000001801183d4     iconv.obj
 0004:000013e0       $pdata$mb_to_uc_write_replacement 00000001801183e0     iconv.obj
 0004:000013ec       $pdata$4$mb_to_uc_write_replacement 00000001801183ec     iconv.obj
 0004:000013f8       $pdata$5$mb_to_uc_write_replacement 00000001801183f8     iconv.obj
 0004:00001404       $pdata$6$mb_to_uc_write_replacement 0000000180118404     iconv.obj
 0004:00001410       $pdata$uc_to_mb_write_replacement 0000000180118410     iconv.obj
 0004:0000141c       $pdata$unicode_transliterate 000000018011841c     iconv.obj
 0004:00001428       $pdata$big5_2003_wctomb    0000000180118428     iconv.obj
 0004:00001434       $pdata$big5_2003_mbtowc    0000000180118434     iconv.obj
 0004:00001440       $pdata$1$big5_2003_mbtowc  0000000180118440     iconv.obj
 0004:0000144c       $pdata$3$big5_2003_mbtowc  000000018011844c     iconv.obj
 0004:00001458       $pdata$5$big5_2003_mbtowc  0000000180118458     iconv.obj
 0004:00001464       $pdata$7$big5_2003_mbtowc  0000000180118464     iconv.obj
 0004:00001470       $pdata$9$big5_2003_mbtowc  0000000180118470     iconv.obj
 0004:0000147c       $pdata$11$big5_2003_mbtowc 000000018011847c     iconv.obj
 0004:00001488       $pdata$13$big5_2003_mbtowc 0000000180118488     iconv.obj
 0004:00001494       $pdata$15$big5_2003_mbtowc 0000000180118494     iconv.obj
 0004:000014a0       $pdata$17$big5_2003_mbtowc 00000001801184a0     iconv.obj
 0004:000014ac       $pdata$19$big5_2003_mbtowc 00000001801184ac     iconv.obj
 0004:000014b8       $pdata$21$big5_2003_mbtowc 00000001801184b8     iconv.obj
 0004:000014c4       $pdata$iso2022_jp3_reset   00000001801184c4     iconv.obj
 0004:000014d0       $pdata$iso2022_jp3_wctomb  00000001801184d0     iconv.obj
 0004:000014dc       $pdata$iso2022_jp3_mbtowc  00000001801184dc     iconv.obj
 0004:000014e8       $pdata$shift_jisx0213_wctomb 00000001801184e8     iconv.obj
 0004:000014f4       $pdata$shift_jisx0213_mbtowc 00000001801184f4     iconv.obj
 0004:00001500       $pdata$euc_jisx0213_wctomb 0000000180118500     iconv.obj
 0004:0000150c       $pdata$euc_jisx0213_mbtowc 000000018011850c     iconv.obj
 0004:00001518       $pdata$dec_hanyu_wctomb    0000000180118518     iconv.obj
 0004:00001524       $pdata$dec_hanyu_mbtowc    0000000180118524     iconv.obj
 0004:00001530       $pdata$dec_kanji_wctomb    0000000180118530     iconv.obj
 0004:0000153c       $pdata$iso2022_kr_wctomb   000000018011853c     iconv.obj
 0004:00001548       $pdata$iso2022_kr_mbtowc   0000000180118548     iconv.obj
 0004:00001554       $pdata$johab_wctomb        0000000180118554     iconv.obj
 0004:00001560       $pdata$johab_mbtowc        0000000180118560     iconv.obj
 0004:0000156c       $pdata$0$johab_mbtowc      000000018011856c     iconv.obj
 0004:00001578       $pdata$2$johab_mbtowc      0000000180118578     iconv.obj
 0004:00001584       $pdata$4$johab_mbtowc      0000000180118584     iconv.obj
 0004:00001590       $pdata$6$johab_mbtowc      0000000180118590     iconv.obj
 0004:0000159c       $pdata$8$johab_mbtowc      000000018011859c     iconv.obj
 0004:000015a8       $pdata$10$johab_mbtowc     00000001801185a8     iconv.obj
 0004:000015b4       $pdata$11$johab_mbtowc     00000001801185b4     iconv.obj
 0004:000015c0       $pdata$cp949_wctomb        00000001801185c0     iconv.obj
 0004:000015cc       $pdata$0$cp949_wctomb      00000001801185cc     iconv.obj
 0004:000015d8       $pdata$2$cp949_wctomb      00000001801185d8     iconv.obj
 0004:000015e4       $pdata$euc_kr_wctomb       00000001801185e4     iconv.obj
 0004:000015f0       $pdata$big5hkscs2008_wctomb 00000001801185f0     iconv.obj
 0004:000015fc       $pdata$big5hkscs2008_mbtowc 00000001801185fc     iconv.obj
 0004:00001608       $pdata$hkscs2008_wctomb    0000000180118608     iconv.obj
 0004:00001614       $pdata$big5hkscs2004_wctomb 0000000180118614     iconv.obj
 0004:00001620       $pdata$big5hkscs2004_mbtowc 0000000180118620     iconv.obj
 0004:0000162c       $pdata$hkscs2004_wctomb    000000018011862c     iconv.obj
 0004:00001638       $pdata$big5hkscs2001_wctomb 0000000180118638     iconv.obj
 0004:00001644       $pdata$big5hkscs2001_mbtowc 0000000180118644     iconv.obj
 0004:00001650       $pdata$hkscs2001_wctomb    0000000180118650     iconv.obj
 0004:0000165c       $pdata$big5hkscs1999_wctomb 000000018011865c     iconv.obj
 0004:00001668       $pdata$big5hkscs1999_mbtowc 0000000180118668     iconv.obj
 0004:00001674       $pdata$cp950_wctomb        0000000180118674     iconv.obj
 0004:00001680       $pdata$cp950_mbtowc        0000000180118680     iconv.obj
 0004:0000168c       $pdata$1$cp950_mbtowc      000000018011868c     iconv.obj
 0004:00001698       $pdata$3$cp950_mbtowc      0000000180118698     iconv.obj
 0004:000016a4       $pdata$cp950ext_wctomb     00000001801186a4     iconv.obj
 0004:000016b0       $pdata$ces_big5_wctomb     00000001801186b0     iconv.obj
 0004:000016bc       $pdata$euc_tw_wctomb       00000001801186bc     iconv.obj
 0004:000016c8       $pdata$euc_tw_mbtowc       00000001801186c8     iconv.obj
 0004:000016d4       $pdata$hz_wctomb           00000001801186d4     iconv.obj
 0004:000016e0       $pdata$hz_mbtowc           00000001801186e0     iconv.obj
 0004:000016ec       $pdata$iso2022_cn_ext_wctomb 00000001801186ec     iconv.obj
 0004:000016f8       $pdata$iso2022_cn_ext_mbtowc 00000001801186f8     iconv.obj
 0004:00001704       $pdata$iso2022_cn_wctomb   0000000180118704     iconv.obj
 0004:00001710       $pdata$iso2022_cn_mbtowc   0000000180118710     iconv.obj
 0004:0000171c       $pdata$gb18030_wctomb      000000018011871c     iconv.obj
 0004:00001728       $pdata$0$gb18030_wctomb    0000000180118728     iconv.obj
 0004:00001734       $pdata$1$gb18030_wctomb    0000000180118734     iconv.obj
 0004:00001740       $pdata$gb18030_mbtowc      0000000180118740     iconv.obj
 0004:0000174c       $pdata$1$gb18030_mbtowc    000000018011874c     iconv.obj
 0004:00001758       $pdata$2$gb18030_mbtowc    0000000180118758     iconv.obj
 0004:00001764       $pdata$cp936_wctomb        0000000180118764     iconv.obj
 0004:00001770       $pdata$cp936_mbtowc        0000000180118770     iconv.obj
 0004:0000177c       $pdata$ces_gbk_wctomb      000000018011877c     iconv.obj
 0004:00001788       $pdata$euc_cn_wctomb       0000000180118788     iconv.obj
 0004:00001794       $pdata$iso2022_jpms_wctomb 0000000180118794     iconv.obj
 0004:000017a0       $pdata$iso2022_jpms_mbtowc 00000001801187a0     iconv.obj
 0004:000017ac       $pdata$iso2022_jp2_wctomb  00000001801187ac     iconv.obj
 0004:000017b8       $pdata$1$iso2022_jp2_wctomb 00000001801187b8     iconv.obj
 0004:000017c4       $pdata$3$iso2022_jp2_wctomb 00000001801187c4     iconv.obj
 0004:000017d0       $pdata$iso2022_jp2_mbtowc  00000001801187d0     iconv.obj
 0004:000017dc       $pdata$iso2022_jp1_wctomb  00000001801187dc     iconv.obj
 0004:000017e8       $pdata$iso2022_jp1_mbtowc  00000001801187e8     iconv.obj
 0004:000017f4       $pdata$iso2022_jp_wctomb   00000001801187f4     iconv.obj
 0004:00001800       $pdata$iso2022_jp_mbtowc   0000000180118800     iconv.obj
 0004:0000180c       $pdata$cp932_wctomb        000000018011880c     iconv.obj
 0004:00001818       $pdata$sjis_wctomb         0000000180118818     iconv.obj
 0004:00001824       $pdata$euc_jp_wctomb       0000000180118824     iconv.obj
 0004:00001830       $pdata$euc_jp_mbtowc       0000000180118830     iconv.obj
 0004:0000183c       $pdata$gbk_wctomb          000000018011883c     iconv.obj
 0004:00001848       $pdata$gbk_mbtowc          0000000180118848     iconv.obj
 0004:00001854       $pdata$gbkext_inv_wctomb   0000000180118854     iconv.obj
 0004:00001860       $pdata$isoir165_wctomb     0000000180118860     iconv.obj
 0004:0000186c       $pdata$isoir165_mbtowc     000000018011886c     iconv.obj
 0004:00001878       $pdata$jisx0208_wctomb     0000000180118878     iconv.obj
 0004:00001884       $pdata$0$jisx0208_wctomb   0000000180118884     iconv.obj
 0004:00001890       $pdata$2$jisx0208_wctomb   0000000180118890     iconv.obj
 0004:0000189c       $pdata$3$jisx0208_wctomb   000000018011889c     iconv.obj
 0004:000018a8       $pdata$tcvn_wctomb         00000001801188a8     iconv.obj
 0004:000018b4       $pdata$tcvn_mbtowc         00000001801188b4     iconv.obj
 0004:000018c0       $pdata$cp1258_wctomb       00000001801188c0     iconv.obj
 0004:000018cc       $pdata$0$cp1258_wctomb     00000001801188cc     iconv.obj
 0004:000018d8       $pdata$2$cp1258_wctomb     00000001801188d8     iconv.obj
 0004:000018e4       $pdata$4$cp1258_wctomb     00000001801188e4     iconv.obj
 0004:000018f0       $pdata$6$cp1258_wctomb     00000001801188f0     iconv.obj
 0004:000018fc       $pdata$8$cp1258_wctomb     00000001801188fc     iconv.obj
 0004:00001908       $pdata$10$cp1258_wctomb    0000000180118908     iconv.obj
 0004:00001914       $pdata$cp1258_mbtowc       0000000180118914     iconv.obj
 0004:00001920       $pdata$cp1255_wctomb       0000000180118920     iconv.obj
 0004:0000192c       $pdata$0$cp1255_wctomb     000000018011892c     iconv.obj
 0004:00001938       $pdata$2$cp1255_wctomb     0000000180118938     iconv.obj
 0004:00001944       $pdata$4$cp1255_wctomb     0000000180118944     iconv.obj
 0004:00001950       $pdata$6$cp1255_wctomb     0000000180118950     iconv.obj
 0004:0000195c       $pdata$8$cp1255_wctomb     000000018011895c     iconv.obj
 0004:00001968       $pdata$10$cp1255_wctomb    0000000180118968     iconv.obj
 0004:00001974       $pdata$12$cp1255_wctomb    0000000180118974     iconv.obj
 0004:00001980       $pdata$14$cp1255_wctomb    0000000180118980     iconv.obj
 0004:0000198c       $pdata$cp1255_mbtowc       000000018011898c     iconv.obj
 0004:00001998       $pdata$java_mbtowc         0000000180118998     iconv.obj
 0004:000019a4       $pdata$0$java_mbtowc       00000001801189a4     iconv.obj
 0004:000019b0       $pdata$2$java_mbtowc       00000001801189b0     iconv.obj
 0004:000019bc       $pdata$4$java_mbtowc       00000001801189bc     iconv.obj
 0004:000019c8       $pdata$6$java_mbtowc       00000001801189c8     iconv.obj
 0004:000019d4       $pdata$c99_wctomb          00000001801189d4     iconv.obj
 0004:000019e0       $pdata$0$c99_wctomb        00000001801189e0     iconv.obj
 0004:000019ec       $pdata$2$c99_wctomb        00000001801189ec     iconv.obj
 0004:000019f8       $pdata$c99_mbtowc          00000001801189f8     iconv.obj
 0004:00001a04       $pdata$utf7_reset          0000000180118a04     iconv.obj
 0004:00001a10       $pdata$utf7_wctomb         0000000180118a10     iconv.obj
 0004:00001a1c       $pdata$utf7_mbtowc         0000000180118a1c     iconv.obj
 0004:00001a28       $pdata$utf32_mbtowc        0000000180118a28     iconv.obj
 0004:00001a34       $pdata$utf16_mbtowc        0000000180118a34     iconv.obj
 0004:00001a40       $pdata$ucs4_mbtowc         0000000180118a40     iconv.obj
 0004:00001a4c       $pdata$ucs2_mbtowc         0000000180118a4c     iconv.obj
 0004:00001a58       $pdata$libiconv_open       0000000180118a58     iconv.obj
 0004:00001a64       $pdata$?load_exe_hook@@YAP6A_JXZIPEAUDelayLoadInfo@@@Z 0000000180118a64     win_delay_load_hook.obj
 0005:00000000       MsetTab                    0000000180119000     libvcruntime:memset.obj
 0005:00000050       MoveSmall                  0000000180119050     libvcruntime:memcpy.obj
 0006:00000060       $R000000                   000000018011a060     * linker generated manifest res *

 Exports

  ordinal    name

        1    _register_libiconv_
